GAS LISTING /tmp/ccRfv6R1.s 			page 1


   1              		.file	"printing.cpp"
   2              		.option pic
   3              		.option norelax
   4              		.text
   5              	.Ltext0:
   6              		.align	2
   7              		.globl	_Z11printStringPKc
   9              	_Z11printStringPKc:
  10              	.LFB0:
  11              		.file 1 "src/printing.cpp"
   1:src/printing.cpp **** //
   2:src/printing.cpp **** // Created by os on 5/18/22.
   3:src/printing.cpp **** //
   4:src/printing.cpp **** 
   5:src/printing.cpp **** #include "../h/printing.hpp"
   6:src/printing.cpp **** 
   7:src/printing.cpp **** uint64 lockPrint = 0;
   8:src/printing.cpp **** 
   9:src/printing.cpp **** #define LOCK() while(copy_and_swap(lockPrint, 0, 1))
  10:src/printing.cpp **** #define UNLOCK() while(copy_and_swap(lockPrint, 1, 0))
  11:src/printing.cpp **** 
  12:src/printing.cpp **** void printString(char const *string)
  13:src/printing.cpp **** {
  12              		.loc 1 13 1
  13              		.cfi_startproc
  14              	.LVL0:
  15 0000 130101FE 		addi	sp,sp,-32
  16              		.cfi_def_cfa_offset 32
  17 0004 233C1100 		sd	ra,24(sp)
  18 0008 23388100 		sd	s0,16(sp)
  19 000c 23349100 		sd	s1,8(sp)
  20              		.cfi_offset 1, -8
  21              		.cfi_offset 8, -16
  22              		.cfi_offset 9, -24
  23 0010 13040102 		addi	s0,sp,32
  24              		.cfi_def_cfa 8, 0
  25 0014 93040500 		mv	s1,a0
  26              	.LVL1:
  27              	.L2:
  14:src/printing.cpp ****     LOCK();
  28              		.loc 1 14 5
  29              		.loc 1 14 5
  30 0018 13061000 		li	a2,1
  31 001c 93050000 		li	a1,0
  32 0020 17050000 		lla	a0,.LANCHOR0
  32      13050500 
  33 0028 97000000 		call	copy_and_swap@plt
  33      E7800000 
  34              	.LVL2:
  35 0030 E31405FE 		bnez	a0,.L2
  36              	.L4:
  15:src/printing.cpp ****     while (*string != '\0')
  37              		.loc 1 15 5
  38              		.loc 1 15 20
  39              		.loc 1 15 12 is_stmt 0
  40 0034 03C50400 		lbu	a0,0(s1)
  41              		.loc 1 15 20
GAS LISTING /tmp/ccRfv6R1.s 			page 2


  42 0038 630A0500 		beqz	a0,.L3
  16:src/printing.cpp ****     {
  17:src/printing.cpp ****         putc(*string);
  43              		.loc 1 17 9 is_stmt 1
  44              		.loc 1 17 13 is_stmt 0
  45 003c 97000000 		call	putc@plt
  45      E7800000 
  46              	.LVL3:
  18:src/printing.cpp ****         string++;
  47              		.loc 1 18 9 is_stmt 1
  48              		.loc 1 18 15 is_stmt 0
  49 0044 93841400 		addi	s1,s1,1
  50              	.LVL4:
  15:src/printing.cpp ****     while (*string != '\0')
  51              		.loc 1 15 5
  52 0048 6FF0DFFE 		j	.L4
  53              	.L3:
  19:src/printing.cpp ****     }
  20:src/printing.cpp ****     UNLOCK();
  54              		.loc 1 20 5 is_stmt 1
  55              		.loc 1 20 5
  56 004c 13060000 		li	a2,0
  57 0050 93051000 		li	a1,1
  58 0054 17050000 		lla	a0,.LANCHOR0
  58      13050500 
  59 005c 97000000 		call	copy_and_swap@plt
  59      E7800000 
  60              	.LVL5:
  61 0064 E31405FE 		bnez	a0,.L3
  21:src/printing.cpp **** }
  62              		.loc 1 21 1 is_stmt 0
  63 0068 83308101 		ld	ra,24(sp)
  64              		.cfi_restore 1
  65 006c 03340101 		ld	s0,16(sp)
  66              		.cfi_restore 8
  67              		.cfi_def_cfa 2, 32
  68 0070 83348100 		ld	s1,8(sp)
  69              		.cfi_restore 9
  70              	.LVL6:
  71 0074 13010102 		addi	sp,sp,32
  72              		.cfi_def_cfa_offset 0
  73 0078 67800000 		jr	ra
  74              		.cfi_endproc
  75              	.LFE0:
  77              		.align	2
  78              		.globl	_Z9getStringPci
  80              	_Z9getStringPci:
  81              	.LFB1:
  22:src/printing.cpp **** 
  23:src/printing.cpp **** char* getString(char *buf, int max) {
  82              		.loc 1 23 37 is_stmt 1
  83              		.cfi_startproc
  84              	.LVL7:
  85 007c 130101FD 		addi	sp,sp,-48
  86              		.cfi_def_cfa_offset 48
  87 0080 23341102 		sd	ra,40(sp)
  88 0084 23308102 		sd	s0,32(sp)
GAS LISTING /tmp/ccRfv6R1.s 			page 3


  89 0088 233C9100 		sd	s1,24(sp)
  90 008c 23382101 		sd	s2,16(sp)
  91 0090 23343101 		sd	s3,8(sp)
  92 0094 23304101 		sd	s4,0(sp)
  93              		.cfi_offset 1, -8
  94              		.cfi_offset 8, -16
  95              		.cfi_offset 9, -24
  96              		.cfi_offset 18, -32
  97              		.cfi_offset 19, -40
  98              		.cfi_offset 20, -48
  99 0098 13040103 		addi	s0,sp,48
 100              		.cfi_def_cfa 8, 0
 101 009c 93090500 		mv	s3,a0
 102 00a0 138A0500 		mv	s4,a1
 103              	.LVL8:
 104              	.L7:
  24:src/printing.cpp ****     LOCK();
 105              		.loc 1 24 5
 106              		.loc 1 24 5
 107 00a4 13061000 		li	a2,1
 108 00a8 93050000 		li	a1,0
 109 00ac 17050000 		lla	a0,.LANCHOR0
 109      13050500 
 110 00b4 97000000 		call	copy_and_swap@plt
 110      E7800000 
 111              	.LVL9:
 112 00bc E31405FE 		bnez	a0,.L7
  25:src/printing.cpp ****     int i, cc;
  26:src/printing.cpp ****     char c;
  27:src/printing.cpp **** 
  28:src/printing.cpp ****     for(i=0; i+1 < max; ){
 113              		.loc 1 28 10 is_stmt 0
 114 00c0 13090000 		li	s2,0
 115              	.L9:
 116              	.LVL10:
 117              		.loc 1 28 18 is_stmt 1 discriminator 1
 118 00c4 93040900 		mv	s1,s2
 119              		.loc 1 28 15 is_stmt 0 discriminator 1
 120 00c8 1B091900 		addiw	s2,s2,1
 121              	.LVL11:
 122              		.loc 1 28 18 discriminator 1
 123 00cc 635A4903 		bge	s2,s4,.L8
  29:src/printing.cpp ****         cc = getc();
 124              		.loc 1 29 9 is_stmt 1
 125              		.loc 1 29 18 is_stmt 0
 126 00d0 97000000 		call	getc@plt
 126      E7800000 
 127              	.LVL12:
  30:src/printing.cpp ****         if(cc < 1)
 128              		.loc 1 30 9 is_stmt 1
 129 00d8 63040502 		beqz	a0,.L8
  31:src/printing.cpp ****             break;
  32:src/printing.cpp ****         c = cc;
 130              		.loc 1 32 9
 131              	.LVL13:
  33:src/printing.cpp ****         buf[i++] = c;
 132              		.loc 1 33 9
GAS LISTING /tmp/ccRfv6R1.s 			page 4


 133              		.loc 1 33 16 is_stmt 0
 134 00dc B3849900 		add	s1,s3,s1
 135              		.loc 1 33 18
 136 00e0 2380A400 		sb	a0,0(s1)
  34:src/printing.cpp ****         if(c == '\n' || c == '\r')
 137              		.loc 1 34 9 is_stmt 1
 138 00e4 9307A000 		li	a5,10
 139 00e8 630AF500 		beq	a0,a5,.L11
 140              		.loc 1 34 22 is_stmt 0 discriminator 1
 141 00ec 9307D000 		li	a5,13
 142 00f0 E31AF5FC 		bne	a0,a5,.L9
  33:src/printing.cpp ****         buf[i++] = c;
 143              		.loc 1 33 14
 144 00f4 93040900 		mv	s1,s2
 145 00f8 6F008000 		j	.L8
 146              	.L11:
 147 00fc 93040900 		mv	s1,s2
 148              	.LVL14:
 149              	.L8:
  35:src/printing.cpp ****             break;
  36:src/printing.cpp ****     }
  37:src/printing.cpp ****     buf[i] = '\0';
 150              		.loc 1 37 5 is_stmt 1
 151              		.loc 1 37 10 is_stmt 0
 152 0100 B3849900 		add	s1,s3,s1
 153              	.LVL15:
 154              		.loc 1 37 12
 155 0104 23800400 		sb	zero,0(s1)
 156              	.L10:
  38:src/printing.cpp **** 
  39:src/printing.cpp ****     UNLOCK();
 157              		.loc 1 39 5 is_stmt 1
 158              		.loc 1 39 5
 159 0108 13060000 		li	a2,0
 160 010c 93051000 		li	a1,1
 161 0110 17050000 		lla	a0,.LANCHOR0
 161      13050500 
 162 0118 97000000 		call	copy_and_swap@plt
 162      E7800000 
 163              	.LVL16:
 164 0120 E31405FE 		bnez	a0,.L10
  40:src/printing.cpp ****     return buf;
 165              		.loc 1 40 5
  41:src/printing.cpp **** }
 166              		.loc 1 41 1 is_stmt 0
 167 0124 13850900 		mv	a0,s3
 168 0128 83308102 		ld	ra,40(sp)
 169              		.cfi_restore 1
 170 012c 03340102 		ld	s0,32(sp)
 171              		.cfi_restore 8
 172              		.cfi_def_cfa 2, 48
 173 0130 83348101 		ld	s1,24(sp)
 174              		.cfi_restore 9
 175 0134 03390101 		ld	s2,16(sp)
 176              		.cfi_restore 18
 177 0138 83398100 		ld	s3,8(sp)
 178              		.cfi_restore 19
GAS LISTING /tmp/ccRfv6R1.s 			page 5


 179              	.LVL17:
 180 013c 033A0100 		ld	s4,0(sp)
 181              		.cfi_restore 20
 182 0140 13010103 		addi	sp,sp,48
 183              		.cfi_def_cfa_offset 0
 184 0144 67800000 		jr	ra
 185              		.cfi_endproc
 186              	.LFE1:
 188              		.align	2
 189              		.globl	_Z11stringToIntPKc
 191              	_Z11stringToIntPKc:
 192              	.LFB2:
  42:src/printing.cpp **** 
  43:src/printing.cpp **** int stringToInt(const char *s) {
 193              		.loc 1 43 32 is_stmt 1
 194              		.cfi_startproc
 195              	.LVL18:
 196 0148 130101FF 		addi	sp,sp,-16
 197              		.cfi_def_cfa_offset 16
 198 014c 23348100 		sd	s0,8(sp)
 199              		.cfi_offset 8, -8
 200 0150 13040101 		addi	s0,sp,16
 201              		.cfi_def_cfa 8, 0
 202 0154 93060500 		mv	a3,a0
  44:src/printing.cpp ****     int n;
 203              		.loc 1 44 5
  45:src/printing.cpp **** 
  46:src/printing.cpp ****     n = 0;
 204              		.loc 1 46 5
 205              	.LVL19:
 206              		.loc 1 46 7 is_stmt 0
 207 0158 13050000 		li	a0,0
 208              	.LVL20:
 209              	.L15:
  47:src/printing.cpp ****     while ('0' <= *s && *s <= '9')
 210              		.loc 1 47 5 is_stmt 1
 211              		.loc 1 47 22
 212              		.loc 1 47 19 is_stmt 0
 213 015c 03C60600 		lbu	a2,0(a3)
 214              		.loc 1 47 22
 215 0160 1B0706FD 		addiw	a4,a2,-48
 216 0164 1377F70F 		andi	a4,a4,0xff
 217 0168 93079000 		li	a5,9
 218 016c 63E0E702 		bgtu	a4,a5,.L14
  48:src/printing.cpp ****         n = n * 10 + *s++ - '0';
 219              		.loc 1 48 9 is_stmt 1
 220              		.loc 1 48 15 is_stmt 0
 221 0170 9B172500 		slliw	a5,a0,2
 222 0174 BB87A700 		addw	a5,a5,a0
 223 0178 9B971700 		slliw	a5,a5,1
 224              		.loc 1 48 24
 225 017c 93861600 		addi	a3,a3,1
 226              	.LVL21:
 227              		.loc 1 48 20
 228 0180 BB87C700 		addw	a5,a5,a2
 229              		.loc 1 48 11
 230 0184 1B8507FD 		addiw	a0,a5,-48
GAS LISTING /tmp/ccRfv6R1.s 			page 6


 231              	.LVL22:
  47:src/printing.cpp ****     while ('0' <= *s && *s <= '9')
 232              		.loc 1 47 5
 233 0188 6FF05FFD 		j	.L15
 234              	.LVL23:
 235              	.L14:
  49:src/printing.cpp ****     return n;
 236              		.loc 1 49 5 is_stmt 1
  50:src/printing.cpp **** }
 237              		.loc 1 50 1 is_stmt 0
 238 018c 03348100 		ld	s0,8(sp)
 239              		.cfi_restore 8
 240              		.cfi_def_cfa 2, 16
 241 0190 13010101 		addi	sp,sp,16
 242              		.cfi_def_cfa_offset 0
 243 0194 67800000 		jr	ra
 244              		.cfi_endproc
 245              	.LFE2:
 247              		.align	2
 248              		.globl	_Z8printIntiii
 250              	_Z8printIntiii:
 251              	.LFB3:
  51:src/printing.cpp **** 
  52:src/printing.cpp **** char digits[] = "0123456789ABCDEF";
  53:src/printing.cpp **** 
  54:src/printing.cpp **** void printInt(int xx, int base, int sgn)
  55:src/printing.cpp **** {
 252              		.loc 1 55 1 is_stmt 1
 253              		.cfi_startproc
 254              	.LVL24:
 255 0198 130101FC 		addi	sp,sp,-64
 256              		.cfi_def_cfa_offset 64
 257 019c 233C1102 		sd	ra,56(sp)
 258 01a0 23388102 		sd	s0,48(sp)
 259 01a4 23349102 		sd	s1,40(sp)
 260 01a8 23302103 		sd	s2,32(sp)
 261 01ac 233C3101 		sd	s3,24(sp)
 262              		.cfi_offset 1, -8
 263              		.cfi_offset 8, -16
 264              		.cfi_offset 9, -24
 265              		.cfi_offset 18, -32
 266              		.cfi_offset 19, -40
 267 01b0 13040104 		addi	s0,sp,64
 268              		.cfi_def_cfa 8, 0
 269 01b4 93040500 		mv	s1,a0
 270 01b8 13890500 		mv	s2,a1
 271 01bc 93090600 		mv	s3,a2
 272              	.LVL25:
 273              	.L18:
  56:src/printing.cpp ****     LOCK();
 274              		.loc 1 56 5
 275              		.loc 1 56 5
 276 01c0 13061000 		li	a2,1
 277 01c4 93050000 		li	a1,0
 278 01c8 17050000 		lla	a0,.LANCHOR0
 278      13050500 
 279 01d0 97000000 		call	copy_and_swap@plt
GAS LISTING /tmp/ccRfv6R1.s 			page 7


 279      E7800000 
 280              	.LVL26:
 281 01d8 E31405FE 		bnez	a0,.L18
  57:src/printing.cpp ****     char buf[16];
 282              		.loc 1 57 5
  58:src/printing.cpp ****     int i, neg;
 283              		.loc 1 58 5
  59:src/printing.cpp ****     uint x;
 284              		.loc 1 59 5
  60:src/printing.cpp **** 
  61:src/printing.cpp ****     neg = 0;
 285              		.loc 1 61 5
 286              	.LVL27:
  62:src/printing.cpp ****     if(sgn && xx < 0){
 287              		.loc 1 62 5
 288 01dc 63840900 		beqz	s3,.L19
 289              		.loc 1 62 12 is_stmt 0 discriminator 1
 290 01e0 63C40408 		bltz	s1,.L26
 291              	.L19:
  63:src/printing.cpp ****         neg = 1;
  64:src/printing.cpp ****         x = -xx;
  65:src/printing.cpp ****     } else {
  66:src/printing.cpp ****         x = xx;
 292              		.loc 1 66 9 is_stmt 1
 293              		.loc 1 66 11 is_stmt 0
 294 01e4 1B850400 		sext.w	a0,s1
 295              	.LVL28:
  61:src/printing.cpp ****     if(sgn && xx < 0){
 296              		.loc 1 61 9
 297 01e8 93050000 		li	a1,0
 298              	.LVL29:
 299              	.L20:
  67:src/printing.cpp ****     }
  68:src/printing.cpp **** 
  69:src/printing.cpp ****     i = 0;
 300              		.loc 1 69 5 is_stmt 1
 301              		.loc 1 69 7 is_stmt 0
 302 01ec 93040000 		li	s1,0
 303              	.LVL30:
 304              	.L21:
  70:src/printing.cpp ****     do{
 305              		.loc 1 70 5 is_stmt 1
  71:src/printing.cpp ****         buf[i++] = digits[x % base];
 306              		.loc 1 71 9
 307              		.loc 1 71 31 is_stmt 0
 308 01f0 9B070900 		sext.w	a5,s2
 309              		.loc 1 71 29
 310 01f4 3B772503 		remuw	a4,a0,s2
 311 01f8 13860400 		mv	a2,s1
 312              		.loc 1 71 14
 313 01fc 9B841400 		addiw	s1,s1,1
 314              	.LVL31:
 315              		.loc 1 71 35
 316 0200 93160702 		slli	a3,a4,32
 317 0204 93D60602 		srli	a3,a3,32
 318 0208 17070000 		lla	a4,.LANCHOR1
 318      13070700 
GAS LISTING /tmp/ccRfv6R1.s 			page 8


 319 0210 3307D700 		add	a4,a4,a3
 320 0214 83460700 		lbu	a3,0(a4)
 321              		.loc 1 71 18
 322 0218 130704FD 		addi	a4,s0,-48
 323 021c 3307C700 		add	a4,a4,a2
 324 0220 2308D7FE 		sb	a3,-16(a4)
  72:src/printing.cpp ****     }while((x /= base) != 0);
 325              		.loc 1 72 24 is_stmt 1
 326 0224 1B070500 		sext.w	a4,a0
 327              		.loc 1 72 15 is_stmt 0
 328 0228 3B552503 		divuw	a0,a0,s2
 329              	.LVL32:
 330              		.loc 1 72 24
 331 022c E372F7FC 		bleu	a5,a4,.L21
  73:src/printing.cpp ****     if(neg)
 332              		.loc 1 73 5 is_stmt 1
 333 0230 638C0500 		beqz	a1,.L24
  74:src/printing.cpp ****         buf[i++] = '-';
 334              		.loc 1 74 9
 335              	.LVL33:
 336              		.loc 1 74 18 is_stmt 0
 337 0234 930704FD 		addi	a5,s0,-48
 338 0238 B3849700 		add	s1,a5,s1
 339 023c 9307D002 		li	a5,45
 340 0240 2388F4FE 		sb	a5,-16(s1)
 341              		.loc 1 74 14
 342 0244 9B042600 		addiw	s1,a2,2
 343              	.LVL34:
 344              	.L24:
  75:src/printing.cpp **** 
  76:src/printing.cpp ****     while(--i >= 0)
 345              		.loc 1 76 5 is_stmt 1
 346              		.loc 1 76 15
 347 0248 9B84F4FF 		addiw	s1,s1,-1
 348              	.LVL35:
 349 024c 63C40402 		bltz	s1,.L23
  77:src/printing.cpp ****         putc(buf[i]);
 350              		.loc 1 77 9
 351              		.loc 1 77 13 is_stmt 0
 352 0250 930704FD 		addi	a5,s0,-48
 353 0254 B3879700 		add	a5,a5,s1
 354 0258 03C507FF 		lbu	a0,-16(a5)
 355 025c 97000000 		call	putc@plt
 355      E7800000 
 356              	.LVL36:
 357 0264 6FF05FFE 		j	.L24
 358              	.LVL37:
 359              	.L26:
  63:src/printing.cpp ****         x = -xx;
 360              		.loc 1 63 9 is_stmt 1
  64:src/printing.cpp ****     } else {
 361              		.loc 1 64 9
  64:src/printing.cpp ****     } else {
 362              		.loc 1 64 11 is_stmt 0
 363 0268 3B059040 		negw	a0,s1
 364              	.LVL38:
  63:src/printing.cpp ****         x = -xx;
GAS LISTING /tmp/ccRfv6R1.s 			page 9


 365              		.loc 1 63 13
 366 026c 93051000 		li	a1,1
  64:src/printing.cpp ****     } else {
 367              		.loc 1 64 11
 368 0270 6FF0DFF7 		j	.L20
 369              	.LVL39:
 370              	.L23:
  78:src/printing.cpp **** 
  79:src/printing.cpp ****     UNLOCK();
 371              		.loc 1 79 5 is_stmt 1
 372              		.loc 1 79 5
 373 0274 13060000 		li	a2,0
 374 0278 93051000 		li	a1,1
 375 027c 17050000 		lla	a0,.LANCHOR0
 375      13050500 
 376 0284 97000000 		call	copy_and_swap@plt
 376      E7800000 
 377              	.LVL40:
 378 028c E31405FE 		bnez	a0,.L23
  80:src/printing.cpp **** }
 379              		.loc 1 80 1 is_stmt 0
 380 0290 83308103 		ld	ra,56(sp)
 381              		.cfi_restore 1
 382 0294 03340103 		ld	s0,48(sp)
 383              		.cfi_restore 8
 384              		.cfi_def_cfa 2, 64
 385 0298 83348102 		ld	s1,40(sp)
 386              		.cfi_restore 9
 387 029c 03390102 		ld	s2,32(sp)
 388              		.cfi_restore 18
 389 02a0 83398101 		ld	s3,24(sp)
 390              		.cfi_restore 19
 391 02a4 13010104 		addi	sp,sp,64
 392              		.cfi_def_cfa_offset 0
 393 02a8 67800000 		jr	ra
 394              		.cfi_endproc
 395              	.LFE3:
 397              		.align	2
 398              		.globl	_Z12print_addresm
 400              	_Z12print_addresm:
 401              	.LFB4:
  81:src/printing.cpp **** 
  82:src/printing.cpp **** void print_addres(uint64 num){
 402              		.loc 1 82 30 is_stmt 1
 403              		.cfi_startproc
 404              	.LVL41:
 405 02ac 130101FC 		addi	sp,sp,-64
 406              		.cfi_def_cfa_offset 64
 407 02b0 233C1102 		sd	ra,56(sp)
 408 02b4 23388102 		sd	s0,48(sp)
 409 02b8 23349102 		sd	s1,40(sp)
 410 02bc 23302103 		sd	s2,32(sp)
 411              		.cfi_offset 1, -8
 412              		.cfi_offset 8, -16
 413              		.cfi_offset 9, -24
 414              		.cfi_offset 18, -32
 415 02c0 13040104 		addi	s0,sp,64
GAS LISTING /tmp/ccRfv6R1.s 			page 10


 416              		.cfi_def_cfa 8, 0
 417 02c4 13090500 		mv	s2,a0
 418              	.LVL42:
 419              	.L28:
  83:src/printing.cpp ****     LOCK();
 420              		.loc 1 83 5
 421              		.loc 1 83 5
 422 02c8 13061000 		li	a2,1
 423 02cc 93050000 		li	a1,0
 424 02d0 17050000 		lla	a0,.LANCHOR0
 424      13050500 
 425 02d8 97000000 		call	copy_and_swap@plt
 425      E7800000 
 426              	.LVL43:
 427 02e0 E31405FE 		bnez	a0,.L28
  84:src/printing.cpp ****     if(num == 0){
 428              		.loc 1 84 5
 429 02e4 63080902 		beqz	s2,.L36
  85:src/printing.cpp ****         putc('0');
  86:src/printing.cpp ****         UNLOCK();
  87:src/printing.cpp ****         return;
  88:src/printing.cpp ****     }
  89:src/printing.cpp **** 
  90:src/printing.cpp ****     char buffer[20];
  91:src/printing.cpp ****     int i = 0;
 430              		.loc 1 91 9 is_stmt 0
 431 02e8 93040000 		li	s1,0
 432              	.L29:
 433              	.LVL44:
  92:src/printing.cpp ****     while (num > 0){
 434              		.loc 1 92 5 is_stmt 1
 435              		.loc 1 92 16
 436 02ec 630A0904 		beqz	s2,.L32
  93:src/printing.cpp ****         buffer[i++] = (num % 10) + '0';
 437              		.loc 1 93 9
 438              		.loc 1 93 28 is_stmt 0
 439 02f0 1307A000 		li	a4,10
 440 02f4 B377E902 		remu	a5,s2,a4
 441              	.LVL45:
 442              		.loc 1 93 34
 443 02f8 93870703 		addi	a5,a5,48
 444              		.loc 1 93 21
 445 02fc 930604FE 		addi	a3,s0,-32
 446 0300 B3869600 		add	a3,a3,s1
 447 0304 2384F6FE 		sb	a5,-24(a3)
  94:src/printing.cpp ****         num /= 10;
 448              		.loc 1 94 9 is_stmt 1
 449              		.loc 1 94 13 is_stmt 0
 450 0308 3359E902 		divu	s2,s2,a4
 451              	.LVL46:
  93:src/printing.cpp ****         buffer[i++] = (num % 10) + '0';
 452              		.loc 1 93 17
 453 030c 9B841400 		addiw	s1,s1,1
 454              	.LVL47:
  92:src/printing.cpp ****     while (num > 0){
 455              		.loc 1 92 5
 456 0310 6FF0DFFD 		j	.L29
GAS LISTING /tmp/ccRfv6R1.s 			page 11


 457              	.L36:
  85:src/printing.cpp ****         UNLOCK();
 458              		.loc 1 85 9 is_stmt 1
  85:src/printing.cpp ****         UNLOCK();
 459              		.loc 1 85 13 is_stmt 0
 460 0314 13050003 		li	a0,48
 461 0318 97000000 		call	putc@plt
 461      E7800000 
 462              	.LVL48:
 463              	.L30:
  86:src/printing.cpp ****         return;
 464              		.loc 1 86 9 is_stmt 1
  86:src/printing.cpp ****         return;
 465              		.loc 1 86 9
 466 0320 13060000 		li	a2,0
 467 0324 93051000 		li	a1,1
 468 0328 17050000 		lla	a0,.LANCHOR0
 468      13050500 
 469 0330 97000000 		call	copy_and_swap@plt
 469      E7800000 
 470              	.LVL49:
 471 0338 E31405FE 		bnez	a0,.L30
 472 033c 6F000004 		j	.L27
 473              	.L32:
 474              	.LVL50:
  95:src/printing.cpp ****     }
  96:src/printing.cpp ****     while(i > 0) {
 475              		.loc 1 96 5
 476              		.loc 1 96 13
 477 0340 63509002 		blez	s1,.L33
  97:src/printing.cpp ****         putc(buffer[--i]);
 478              		.loc 1 97 9
 479              		.loc 1 97 13 is_stmt 0
 480 0344 9B84F4FF 		addiw	s1,s1,-1
 481              	.LVL51:
 482 0348 930704FE 		addi	a5,s0,-32
 483 034c B3879700 		add	a5,a5,s1
 484 0350 03C587FE 		lbu	a0,-24(a5)
 485 0354 97000000 		call	putc@plt
 485      E7800000 
 486              	.LVL52:
 487 035c 6FF05FFE 		j	.L32
 488              	.LVL53:
 489              	.L33:
  98:src/printing.cpp ****     }
  99:src/printing.cpp ****     UNLOCK();
 490              		.loc 1 99 5 is_stmt 1
 491              		.loc 1 99 5
 492 0360 13060000 		li	a2,0
 493 0364 93051000 		li	a1,1
 494 0368 17050000 		lla	a0,.LANCHOR0
 494      13050500 
 495 0370 97000000 		call	copy_and_swap@plt
 495      E7800000 
 496              	.LVL54:
 497 0378 E31405FE 		bnez	a0,.L33
 498              	.LVL55:
GAS LISTING /tmp/ccRfv6R1.s 			page 12


 499              	.L27:
 100:src/printing.cpp **** }...
 500              		.loc 1 100 1 is_stmt 0
 501 037c 83308103 		ld	ra,56(sp)
 502              		.cfi_restore 1
 503 0380 03340103 		ld	s0,48(sp)
 504              		.cfi_restore 8
 505              		.cfi_def_cfa 2, 64
 506 0384 83348102 		ld	s1,40(sp)
 507              		.cfi_restore 9
 508 0388 03390102 		ld	s2,32(sp)
 509              		.cfi_restore 18
 510              	.LVL56:
 511 038c 13010104 		addi	sp,sp,64
 512              		.cfi_def_cfa_offset 0
 513 0390 67800000 		jr	ra
 514              		.cfi_endproc
 515              	.LFE4:
 517              		.globl	digits
 518              		.globl	lockPrint
 519              		.data
 520              		.align	3
 521              		.set	.LANCHOR1,. + 0
 524              	digits:
 525 0000 30313233 		.string	"0123456789ABCDEF"
 525      34353637 
 525      38394142 
 525      43444546 
 525      00
 526              		.bss
 527              		.align	3
 528              		.set	.LANCHOR0,. + 0
 531              	lockPrint:
 532 0000 00000000 		.zero	8
 532      00000000 
 533              		.text
 534              	.Letext0:
 535              		.file 2 "src/../h/../lib/hw.h"
 536              		.file 3 "src/../h/printing.hpp"
 537              		.file 4 "src/../h/syscall_c.h"
GAS LISTING /tmp/ccRfv6R1.s 			page 13

