GAS LISTING /tmp/ccpxN8Vn.s 			page 1


   1              		.file	"syscall_c.cpp"
   2              		.option pic
   3              		.option norelax
   4              		.text
   5              	.Ltext0:
   6              		.align	2
   7              		.globl	mem_alloc
   9              	mem_alloc:
  10              	.LFB0:
  11              		.file 1 "src/syscall_c.cpp"
   1:src/syscall_c.cpp **** //
   2:src/syscall_c.cpp **** // Created by os on 9/14/22.
   3:src/syscall_c.cpp **** //
   4:src/syscall_c.cpp **** 
   5:src/syscall_c.cpp **** #include "../h/syscall_c.h"
   6:src/syscall_c.cpp **** #include "../h/printing.hpp"
   7:src/syscall_c.cpp **** void *mem_alloc(size_t size) {
  12              		.loc 1 7 30
  13              		.cfi_startproc
  14              	.LVL0:
   8:src/syscall_c.cpp ****     if(!size)return nullptr;
  15              		.loc 1 8 5
  16 0000 630E0502 		beqz	a0,.L3
   7:src/syscall_c.cpp ****     if(!size)return nullptr;
  17              		.loc 1 7 30 is_stmt 0
  18 0004 130101FE 		addi	sp,sp,-32
  19              		.cfi_def_cfa_offset 32
  20 0008 233C8100 		sd	s0,24(sp)
  21              		.cfi_offset 8, -8
  22 000c 13040102 		addi	s0,sp,32
  23              		.cfi_def_cfa 8, 0
   9:src/syscall_c.cpp ****     __asm__ volatile ("mv a1, %0" : : "r" (size));
  24              		.loc 1 9 5 is_stmt 1
  25              		.loc 1 9 50 is_stmt 0
  26              	#APP
  27              	# 9 "src/syscall_c.cpp" 1
  10              	    __asm__ volatile ("mv a0, %0" : : "r" (0x01));
  28              		mv a1, a0
  29              	# 0 "" 2
  30              		.loc 1 10 5 is_stmt 1
  31              		.loc 1 10 50 is_stmt 0
  32              	#NO_APP
  33 0014 93071000 		li	a5,1
  34              	#APP
  35              	# 10 "src/syscall_c.cpp" 1
  11              	    __asm__ volatile ("ecall");
  36              		mv a0, a5
  37              	# 0 "" 2
  38              		.loc 1 11 5 is_stmt 1
  39              		.loc 1 11 31 is_stmt 0
  40              	# 11 "src/syscall_c.cpp" 1
  12              	    uint64 volatile ret = 0;
  41              		ecall
  42              	# 0 "" 2
  43              		.loc 1 12 5 is_stmt 1
  44              		.loc 1 12 21 is_stmt 0
  45              	#NO_APP
GAS LISTING /tmp/ccpxN8Vn.s 			page 2


  46 0020 233404FE 		sd	zero,-24(s0)
  13:src/syscall_c.cpp ****     __asm__ volatile ("mv %0, a0" : "=r" (ret));
  47              		.loc 1 13 5 is_stmt 1
  48              		.loc 1 13 48 is_stmt 0
  49              	#APP
  50              	# 13 "src/syscall_c.cpp" 1
  14              	    return (void*)ret;
  51              		mv a5, a0
  52              	# 0 "" 2
  53              	#NO_APP
  54 0028 2334F4FE 		sd	a5,-24(s0)
  55              		.loc 1 14 5 is_stmt 1
  56              		.loc 1 14 19 is_stmt 0
  57 002c 033584FE 		ld	a0,-24(s0)
  58              	.LVL1:
  15:src/syscall_c.cpp **** }
  59              		.loc 1 15 1
  60 0030 03348101 		ld	s0,24(sp)
  61              		.cfi_restore 8
  62              		.cfi_def_cfa 2, 32
  63 0034 13010102 		addi	sp,sp,32
  64              		.cfi_def_cfa_offset 0
  65 0038 67800000 		jr	ra
  66              	.LVL2:
  67              	.L3:
   8:src/syscall_c.cpp ****     __asm__ volatile ("mv a1, %0" : : "r" (size));
  68              		.loc 1 8 21
  69 003c 13050000 		li	a0,0
  70              	.LVL3:
  71              		.loc 1 15 1
  72 0040 67800000 		ret
  73              		.cfi_endproc
  74              	.LFE0:
  76              		.align	2
  77              		.globl	mem_free
  79              	mem_free:
  80              	.LFB1:
  16:src/syscall_c.cpp **** 
  17:src/syscall_c.cpp **** int mem_free(void* tmp) {
  81              		.loc 1 17 25 is_stmt 1
  82              		.cfi_startproc
  83              	.LVL4:
  18:src/syscall_c.cpp ****     if (!tmp) { return 0; }
  84              		.loc 1 18 5
  85 0044 63060504 		beqz	a0,.L10
  17:src/syscall_c.cpp ****     if (!tmp) { return 0; }
  86              		.loc 1 17 25 is_stmt 0
  87 0048 130101FE 		addi	sp,sp,-32
  88              		.cfi_def_cfa_offset 32
  89 004c 233C8100 		sd	s0,24(sp)
  90              		.cfi_offset 8, -8
  91 0050 13040102 		addi	s0,sp,32
  92              		.cfi_def_cfa 8, 0
  19:src/syscall_c.cpp ****     uint64 volatile ret = 0;
  93              		.loc 1 19 5 is_stmt 1
  94              		.loc 1 19 21 is_stmt 0
  95 0054 233404FE 		sd	zero,-24(s0)
GAS LISTING /tmp/ccpxN8Vn.s 			page 3


  20:src/syscall_c.cpp ****     __asm__ volatile ("mv a1, %0" : : "r" (tmp));
  96              		.loc 1 20 5 is_stmt 1
  97              		.loc 1 20 49 is_stmt 0
  98              	#APP
  99              	# 20 "src/syscall_c.cpp" 1
  21              	    __asm__ volatile ("mv a0, %0" : : "r" (0x02));
 100              		mv a1, a0
 101              	# 0 "" 2
 102              		.loc 1 21 5 is_stmt 1
 103              		.loc 1 21 50 is_stmt 0
 104              	#NO_APP
 105 005c 93072000 		li	a5,2
 106              	#APP
 107              	# 21 "src/syscall_c.cpp" 1
  22              	    __asm__ volatile ("ecall");
 108              		mv a0, a5
 109              	# 0 "" 2
 110              		.loc 1 22 5 is_stmt 1
 111              		.loc 1 22 31 is_stmt 0
 112              	# 22 "src/syscall_c.cpp" 1
  23              	    __asm__ volatile ("mv %0, a0" : "=r" (ret));
 113              		ecall
 114              	# 0 "" 2
 115              		.loc 1 23 5 is_stmt 1
 116              		.loc 1 23 48 is_stmt 0
 117              	# 23 "src/syscall_c.cpp" 1
  24              	    tmp = nullptr;
 118              		mv a5, a0
 119              	# 0 "" 2
 120              	#NO_APP
 121 006c 2334F4FE 		sd	a5,-24(s0)
 122              		.loc 1 24 5 is_stmt 1
 123              	.LVL5:
  25:src/syscall_c.cpp ****     if(ret == 0)return 0;
 124              		.loc 1 25 5
 125              		.loc 1 25 12 is_stmt 0
 126 0070 833784FE 		ld	a5,-24(s0)
 127              		.loc 1 25 5
 128 0074 639A0700 		bnez	a5,.L16
 129              		.loc 1 25 24
 130 0078 13050000 		li	a0,0
 131              	.L9:
  26:src/syscall_c.cpp ****     return -1;
  27:src/syscall_c.cpp **** }
 132              		.loc 1 27 1
 133 007c 03348101 		ld	s0,24(sp)
 134              		.cfi_remember_state
 135              		.cfi_restore 8
 136              		.cfi_def_cfa 2, 32
 137 0080 13010102 		addi	sp,sp,32
 138              		.cfi_def_cfa_offset 0
 139 0084 67800000 		jr	ra
 140              	.L16:
 141              		.cfi_restore_state
  26:src/syscall_c.cpp ****     return -1;
 142              		.loc 1 26 13
 143 0088 1305F0FF 		li	a0,-1
GAS LISTING /tmp/ccpxN8Vn.s 			page 4


 144 008c 6FF01FFF 		j	.L9
 145              	.LVL6:
 146              	.L10:
 147              		.cfi_def_cfa_register 2
 148              		.cfi_restore 8
  18:src/syscall_c.cpp ****     uint64 volatile ret = 0;
 149              		.loc 1 18 24
 150 0090 13050000 		li	a0,0
 151              	.LVL7:
 152              		.loc 1 27 1
 153 0094 67800000 		ret
 154              		.cfi_endproc
 155              	.LFE1:
 157              		.align	2
 158              		.globl	_Z11callRoutinev
 160              	_Z11callRoutinev:
 161              	.LFB2:
  28:src/syscall_c.cpp **** 
  29:src/syscall_c.cpp **** void callRoutine(){
 162              		.loc 1 29 19 is_stmt 1
 163              		.cfi_startproc
 164 0098 130101FF 		addi	sp,sp,-16
 165              		.cfi_def_cfa_offset 16
 166 009c 23348100 		sd	s0,8(sp)
 167              		.cfi_offset 8, -8
 168 00a0 13040101 		addi	s0,sp,16
 169              		.cfi_def_cfa 8, 0
  30:src/syscall_c.cpp **** 
  31:src/syscall_c.cpp **** }
 170              		.loc 1 31 1 is_stmt 0
 171 00a4 03348100 		ld	s0,8(sp)
 172              		.cfi_restore 8
 173              		.cfi_def_cfa 2, 16
 174 00a8 13010101 		addi	sp,sp,16
 175              		.cfi_def_cfa_offset 0
 176 00ac 67800000 		jr	ra
 177              		.cfi_endproc
 178              	.LFE2:
 180              		.align	2
 181              		.globl	thread_create
 183              	thread_create:
 184              	.LFB3:
  32:src/syscall_c.cpp **** 
  33:src/syscall_c.cpp **** int thread_create(thread_t* handle, void (*start_routine)(void *), void *arg) {
 185              		.loc 1 33 79 is_stmt 1
 186              		.cfi_startproc
 187              	.LVL8:
 188 00b0 130101FC 		addi	sp,sp,-64
 189              		.cfi_def_cfa_offset 64
 190 00b4 233C1102 		sd	ra,56(sp)
 191 00b8 23388102 		sd	s0,48(sp)
 192 00bc 23349102 		sd	s1,40(sp)
 193 00c0 23302103 		sd	s2,32(sp)
 194 00c4 233C3101 		sd	s3,24(sp)
 195              		.cfi_offset 1, -8
 196              		.cfi_offset 8, -16
 197              		.cfi_offset 9, -24
GAS LISTING /tmp/ccpxN8Vn.s 			page 5


 198              		.cfi_offset 18, -32
 199              		.cfi_offset 19, -40
 200 00c8 13040104 		addi	s0,sp,64
 201              		.cfi_def_cfa 8, 0
 202 00cc 93090500 		mv	s3,a0
 203 00d0 13890500 		mv	s2,a1
 204 00d4 93040600 		mv	s1,a2
  34:src/syscall_c.cpp ****     void* stack = mem_alloc(DEFAULT_STACK_SIZE);
 205              		.loc 1 34 5
 206              		.loc 1 34 28 is_stmt 0
 207 00d8 37150000 		li	a0,4096
 208              	.LVL9:
 209 00dc 97000000 		call	mem_alloc
 209      E7800000 
 210              	.LVL10:
  35:src/syscall_c.cpp ****     __asm__ volatile ("mv a1, %0" : : "r" ((uint64)handle));
 211              		.loc 1 35 5 is_stmt 1
 212              		.loc 1 35 60 is_stmt 0
 213              	#APP
 214              	# 35 "src/syscall_c.cpp" 1
  36              	    __asm__ volatile ("mv a2, %0" : : "r" ((uint64)start_routine));
 215              		mv a1, s3
 216              	# 0 "" 2
 217              		.loc 1 36 5 is_stmt 1
 218              		.loc 1 36 67 is_stmt 0
 219              	# 36 "src/syscall_c.cpp" 1
  37              	    __asm__ volatile ("mv a3, %0" : : "r" ((uint64)arg));
 220              		mv a2, s2
 221              	# 0 "" 2
 222              		.loc 1 37 5 is_stmt 1
 223              		.loc 1 37 57 is_stmt 0
 224              	# 37 "src/syscall_c.cpp" 1
  38              	    __asm__ volatile ("mv a0, %0" : : "r" (0x11));
 225              		mv a3, s1
 226              	# 0 "" 2
 227              		.loc 1 38 5 is_stmt 1
 228              		.loc 1 38 50 is_stmt 0
 229              	#NO_APP
 230 00f0 93071001 		li	a5,17
 231              	#APP
 232              	# 38 "src/syscall_c.cpp" 1
  39              	    __asm__ volatile ("mv a4, %0" : : "r" ((uint64)stack));
 233              		mv a0, a5
 234              	# 0 "" 2
 235              		.loc 1 39 5 is_stmt 1
 236              		.loc 1 39 59 is_stmt 0
 237              	# 39 "src/syscall_c.cpp" 1
  40              	    __asm__ volatile ("ecall");
 238              		mv a4, a0
 239              	# 0 "" 2
 240              		.loc 1 40 5 is_stmt 1
 241              		.loc 1 40 31 is_stmt 0
 242              	# 40 "src/syscall_c.cpp" 1
  41              	    uint64* volatile ret = nullptr;
 243              		ecall
 244              	# 0 "" 2
 245              		.loc 1 41 5 is_stmt 1
GAS LISTING /tmp/ccpxN8Vn.s 			page 6


 246              		.loc 1 41 22 is_stmt 0
 247              	#NO_APP
 248 0100 233404FC 		sd	zero,-56(s0)
  42:src/syscall_c.cpp ****     __asm__ volatile ("mv %0, a0" : "=r" (ret));
 249              		.loc 1 42 5 is_stmt 1
 250              		.loc 1 42 48 is_stmt 0
 251              	#APP
 252              	# 42 "src/syscall_c.cpp" 1
  43              	    //*handle = (thread_t)ret;
 253              		mv a5, a0
 254              	# 0 "" 2
 255              	#NO_APP
 256 0108 2334F4FC 		sd	a5,-56(s0)
  44:src/syscall_c.cpp **** 
  45:src/syscall_c.cpp **** 
  46:src/syscall_c.cpp ****     if(ret == nullptr)return 0;
 257              		.loc 1 46 5 is_stmt 1
 258              		.loc 1 46 8 is_stmt 0
 259 010c 833784FC 		ld	a5,-56(s0)
 260              		.loc 1 46 5
 261 0110 63920702 		bnez	a5,.L23
 262              		.loc 1 46 30
 263 0114 13050000 		li	a0,0
 264              	.LVL11:
 265              	.L20:
  47:src/syscall_c.cpp ****     return -1;
  48:src/syscall_c.cpp **** }
 266              		.loc 1 48 1
 267 0118 83308103 		ld	ra,56(sp)
 268              		.cfi_remember_state
 269              		.cfi_restore 1
 270 011c 03340103 		ld	s0,48(sp)
 271              		.cfi_restore 8
 272              		.cfi_def_cfa 2, 64
 273 0120 83348102 		ld	s1,40(sp)
 274              		.cfi_restore 9
 275              	.LVL12:
 276 0124 03390102 		ld	s2,32(sp)
 277              		.cfi_restore 18
 278              	.LVL13:
 279 0128 83398101 		ld	s3,24(sp)
 280              		.cfi_restore 19
 281              	.LVL14:
 282 012c 13010104 		addi	sp,sp,64
 283              		.cfi_def_cfa_offset 0
 284 0130 67800000 		jr	ra
 285              	.LVL15:
 286              	.L23:
 287              		.cfi_restore_state
  47:src/syscall_c.cpp ****     return -1;
 288              		.loc 1 47 13
 289 0134 1305F0FF 		li	a0,-1
 290              	.LVL16:
 291 0138 6FF01FFE 		j	.L20
 292              		.cfi_endproc
 293              	.LFE3:
 295              		.align	2
GAS LISTING /tmp/ccpxN8Vn.s 			page 7


 296              		.globl	thread_exit
 298              	thread_exit:
 299              	.LFB4:
  49:src/syscall_c.cpp **** 
  50:src/syscall_c.cpp **** int thread_exit() {
 300              		.loc 1 50 19 is_stmt 1
 301              		.cfi_startproc
 302 013c 130101FF 		addi	sp,sp,-16
 303              		.cfi_def_cfa_offset 16
 304 0140 23348100 		sd	s0,8(sp)
 305              		.cfi_offset 8, -8
 306 0144 13040101 		addi	s0,sp,16
 307              		.cfi_def_cfa 8, 0
  51:src/syscall_c.cpp ****     __asm__ volatile ("mv a0, %0" : : "r" (0x12));
 308              		.loc 1 51 5
 309              		.loc 1 51 50 is_stmt 0
 310 0148 93072001 		li	a5,18
 311              	#APP
 312              	# 51 "src/syscall_c.cpp" 1
  52              	    __asm__ volatile ("ecall");
 313              		mv a0, a5
 314              	# 0 "" 2
 315              		.loc 1 52 5 is_stmt 1
 316              		.loc 1 52 31 is_stmt 0
 317              	# 52 "src/syscall_c.cpp" 1
  53              	    uint64 ret = 0;
 318              		ecall
 319              	# 0 "" 2
 320              		.loc 1 53 5 is_stmt 1
 321              	.LVL17:
  54:src/syscall_c.cpp ****     __asm__ volatile ("mv %0, a0" : "=r" (ret));
 322              		.loc 1 54 5
 323              		.loc 1 54 48 is_stmt 0
 324              	# 54 "src/syscall_c.cpp" 1
  55              	    if(ret == 0)return 0;
 325              		mv a5, a0
 326              	# 0 "" 2
 327              	.LVL18:
 328              		.loc 1 55 5 is_stmt 1
 329              	#NO_APP
 330 0158 639A0700 		bnez	a5,.L28
 331              		.loc 1 55 24 is_stmt 0
 332 015c 13050000 		li	a0,0
 333              	.L25:
  56:src/syscall_c.cpp ****     return -1;
  57:src/syscall_c.cpp **** }
 334              		.loc 1 57 1
 335 0160 03348100 		ld	s0,8(sp)
 336              		.cfi_remember_state
 337              		.cfi_restore 8
 338              		.cfi_def_cfa 2, 16
 339 0164 13010101 		addi	sp,sp,16
 340              		.cfi_def_cfa_offset 0
 341 0168 67800000 		jr	ra
 342              	.L28:
 343              		.cfi_restore_state
  56:src/syscall_c.cpp ****     return -1;
GAS LISTING /tmp/ccpxN8Vn.s 			page 8


 344              		.loc 1 56 13
 345 016c 1305F0FF 		li	a0,-1
 346 0170 6FF01FFF 		j	.L25
 347              		.cfi_endproc
 348              	.LFE4:
 350              		.align	2
 351              		.globl	thread_dispatch
 353              	thread_dispatch:
 354              	.LFB5:
  58:src/syscall_c.cpp **** 
  59:src/syscall_c.cpp **** void thread_dispatch() {
 355              		.loc 1 59 24 is_stmt 1
 356              		.cfi_startproc
 357 0174 130101FF 		addi	sp,sp,-16
 358              		.cfi_def_cfa_offset 16
 359 0178 23348100 		sd	s0,8(sp)
 360              		.cfi_offset 8, -8
 361 017c 13040101 		addi	s0,sp,16
 362              		.cfi_def_cfa 8, 0
  60:src/syscall_c.cpp ****     __asm__ volatile ("mv a0, %0" : : "r" (0x13));
 363              		.loc 1 60 5
 364              		.loc 1 60 50 is_stmt 0
 365 0180 93073001 		li	a5,19
 366              	#APP
 367              	# 60 "src/syscall_c.cpp" 1
  61              	    __asm__ volatile ("ecall");
 368              		mv a0, a5
 369              	# 0 "" 2
 370              		.loc 1 61 5 is_stmt 1
 371              		.loc 1 61 31 is_stmt 0
 372              	# 61 "src/syscall_c.cpp" 1
  62              	
  63:src/syscall_c.cpp **** }
 373              		ecall
 374              	# 0 "" 2
 375              		.loc 1 63 1
 376              	#NO_APP
 377 018c 03348100 		ld	s0,8(sp)
 378              		.cfi_restore 8
 379              		.cfi_def_cfa 2, 16
 380 0190 13010101 		addi	sp,sp,16
 381              		.cfi_def_cfa_offset 0
 382 0194 67800000 		jr	ra
 383              		.cfi_endproc
 384              	.LFE5:
 386              		.align	2
 387              		.globl	getc
 389              	getc:
 390              	.LFB6:
  64:src/syscall_c.cpp **** 
  65:src/syscall_c.cpp **** char getc() {
 391              		.loc 1 65 13 is_stmt 1
 392              		.cfi_startproc
 393 0198 130101FF 		addi	sp,sp,-16
 394              		.cfi_def_cfa_offset 16
 395 019c 23348100 		sd	s0,8(sp)
 396              		.cfi_offset 8, -8
GAS LISTING /tmp/ccpxN8Vn.s 			page 9


 397 01a0 13040101 		addi	s0,sp,16
 398              		.cfi_def_cfa 8, 0
  66:src/syscall_c.cpp ****     __asm__ volatile ("mv a0, %0" : : "r" (0x41));
 399              		.loc 1 66 5
 400              		.loc 1 66 50 is_stmt 0
 401 01a4 93071004 		li	a5,65
 402              	#APP
 403              	# 66 "src/syscall_c.cpp" 1
  67              	    __asm__ volatile ("ecall");
 404              		mv a0, a5
 405              	# 0 "" 2
 406              		.loc 1 67 5 is_stmt 1
 407              		.loc 1 67 31 is_stmt 0
 408              	# 67 "src/syscall_c.cpp" 1
  68              	    uint64 ret=0;
 409              		ecall
 410              	# 0 "" 2
 411              		.loc 1 68 5 is_stmt 1
 412              	.LVL19:
  69:src/syscall_c.cpp ****     __asm__ volatile ("mv %0, a0" : "=r" (ret));
 413              		.loc 1 69 5
 414              		.loc 1 69 48 is_stmt 0
 415              	# 69 "src/syscall_c.cpp" 1
  70              	    return (char)ret;
 416              		mv a0, a0
 417              	# 0 "" 2
 418              	.LVL20:
 419              		.loc 1 70 5 is_stmt 1
  71:src/syscall_c.cpp **** }
 420              		.loc 1 71 1 is_stmt 0
 421              	#NO_APP
 422 01b4 1375F50F 		andi	a0,a0,0xff
 423              	.LVL21:
 424 01b8 03348100 		ld	s0,8(sp)
 425              		.cfi_restore 8
 426              		.cfi_def_cfa 2, 16
 427 01bc 13010101 		addi	sp,sp,16
 428              		.cfi_def_cfa_offset 0
 429 01c0 67800000 		jr	ra
 430              		.cfi_endproc
 431              	.LFE6:
 433              		.align	2
 434              		.globl	putc
 436              	putc:
 437              	.LFB7:
  72:src/syscall_c.cpp **** 
  73:src/syscall_c.cpp **** void putc(char c) {
 438              		.loc 1 73 19 is_stmt 1
 439              		.cfi_startproc
 440              	.LVL22:
 441 01c4 130101FF 		addi	sp,sp,-16
 442              		.cfi_def_cfa_offset 16
 443 01c8 23348100 		sd	s0,8(sp)
 444              		.cfi_offset 8, -8
 445 01cc 13040101 		addi	s0,sp,16
 446              		.cfi_def_cfa 8, 0
  74:src/syscall_c.cpp ****     __asm__ volatile ("mv a1, %0" : : "r" ((uint64)c));
GAS LISTING /tmp/ccpxN8Vn.s 			page 10


 447              		.loc 1 74 5
 448              		.loc 1 74 55 is_stmt 0
 449              	#APP
 450              	# 74 "src/syscall_c.cpp" 1
  75              	    __asm__ volatile ("mv a0, %0" : : "r" (0x42));
 451              		mv a1, a0
 452              	# 0 "" 2
 453              		.loc 1 75 5 is_stmt 1
 454              		.loc 1 75 50 is_stmt 0
 455              	#NO_APP
 456 01d4 93072004 		li	a5,66
 457              	#APP
 458              	# 75 "src/syscall_c.cpp" 1
  76              	
  77:src/syscall_c.cpp ****     __asm__ volatile ("ecall");
 459              		mv a0, a5
 460              	# 0 "" 2
 461              		.loc 1 77 5 is_stmt 1
 462              		.loc 1 77 31 is_stmt 0
 463              	# 77 "src/syscall_c.cpp" 1
  78              	
  79:src/syscall_c.cpp **** }
 464              		ecall
 465              	# 0 "" 2
 466              		.loc 1 79 1
 467              	#NO_APP
 468 01e0 03348100 		ld	s0,8(sp)
 469              		.cfi_restore 8
 470              		.cfi_def_cfa 2, 16
 471 01e4 13010101 		addi	sp,sp,16
 472              		.cfi_def_cfa_offset 0
 473 01e8 67800000 		jr	ra
 474              		.cfi_endproc
 475              	.LFE7:
 477              		.align	2
 478              		.globl	user_mode
 480              	user_mode:
 481              	.LFB8:
  80:src/syscall_c.cpp **** 
  81:src/syscall_c.cpp **** void user_mode(){
 482              		.loc 1 81 17 is_stmt 1
 483              		.cfi_startproc
 484 01ec 130101FF 		addi	sp,sp,-16
 485              		.cfi_def_cfa_offset 16
 486 01f0 23348100 		sd	s0,8(sp)
 487              		.cfi_offset 8, -8
 488 01f4 13040101 		addi	s0,sp,16
 489              		.cfi_def_cfa 8, 0
  82:src/syscall_c.cpp **** 
  83:src/syscall_c.cpp ****     __asm__ volatile ("mv a0, %0" : : "r" (0x43));
 490              		.loc 1 83 5
 491              		.loc 1 83 50 is_stmt 0
 492 01f8 93073004 		li	a5,67
 493              	#APP
 494              	# 83 "src/syscall_c.cpp" 1
  84              	
  85:src/syscall_c.cpp ****     __asm__ volatile ("ecall");
GAS LISTING /tmp/ccpxN8Vn.s 			page 11


 495              		mv a0, a5
 496              	# 0 "" 2
 497              		.loc 1 85 5 is_stmt 1
 498              		.loc 1 85 31 is_stmt 0
 499              	# 85 "src/syscall_c.cpp" 1
  86              	
  87:src/syscall_c.cpp ****     __asm__ volatile ("mv a0, %0" : : "r" (0x00));
 500              		ecall
 501              	# 0 "" 2
 502              		.loc 1 87 5 is_stmt 1
 503              		.loc 1 87 50 is_stmt 0
 504              	#NO_APP
 505 0204 93070000 		li	a5,0
 506              	#APP
 507              	# 87 "src/syscall_c.cpp" 1
  88              	
  89:src/syscall_c.cpp **** 
  90:src/syscall_c.cpp **** }
 508              		mv a0, a5
 509              	# 0 "" 2
 510              		.loc 1 90 1
 511              	#NO_APP
 512 020c 03348100 		ld	s0,8(sp)
 513              		.cfi_restore 8
 514              		.cfi_def_cfa 2, 16
 515 0210 13010101 		addi	sp,sp,16
 516              		.cfi_def_cfa_offset 0
 517 0214 67800000 		jr	ra
 518              		.cfi_endproc
 519              	.LFE8:
 521              		.align	2
 522              		.globl	thread_join
 524              	thread_join:
 525              	.LFB9:
  91:src/syscall_c.cpp **** 
  92:src/syscall_c.cpp **** void thread_join(thread_t* t){
 526              		.loc 1 92 30 is_stmt 1
 527              		.cfi_startproc
 528              	.LVL23:
 529 0218 130101FF 		addi	sp,sp,-16
 530              		.cfi_def_cfa_offset 16
 531 021c 23348100 		sd	s0,8(sp)
 532              		.cfi_offset 8, -8
 533 0220 13040101 		addi	s0,sp,16
 534              		.cfi_def_cfa 8, 0
  93:src/syscall_c.cpp ****     __asm__ volatile("mv a1,%0": : "r"(t));
 535              		.loc 1 93 5
 536              		.loc 1 93 43 is_stmt 0
 537              	#APP
 538              	# 93 "src/syscall_c.cpp" 1
  94              	    __asm__ volatile ("mv a0, %0" : : "r" (0x44));
 539              		mv a1,a0
 540              	# 0 "" 2
 541              		.loc 1 94 5 is_stmt 1
 542              		.loc 1 94 50 is_stmt 0
 543              	#NO_APP
 544 0228 93074004 		li	a5,68
GAS LISTING /tmp/ccpxN8Vn.s 			page 12


 545              	#APP
 546              	# 94 "src/syscall_c.cpp" 1
  95              	    __asm__ volatile ("ecall");
 547              		mv a0, a5
 548              	# 0 "" 2
 549              		.loc 1 95 5 is_stmt 1
 550              		.loc 1 95 31 is_stmt 0
 551              	# 95 "src/syscall_c.cpp" 1
  96              	    int i = 0;
 552              		ecall
 553              	# 0 "" 2
 554              		.loc 1 96 5 is_stmt 1
 555              	.LVL24:
  97:src/syscall_c.cpp ****     i = i+5;
 556              		.loc 1 97 5
  98:src/syscall_c.cpp **** }
 557              		.loc 1 98 1 is_stmt 0
 558              	#NO_APP
 559 0234 03348100 		ld	s0,8(sp)
 560              		.cfi_restore 8
 561              		.cfi_def_cfa 2, 16
 562 0238 13010101 		addi	sp,sp,16
 563              		.cfi_def_cfa_offset 0
 564 023c 67800000 		jr	ra
 565              		.cfi_endproc
 566              	.LFE9:
 568              	.Letext0:
 569              		.file 2 "src/../h/../lib/hw.h"
 570              		.file 3 "src/../h/syscall_c.h"
GAS LISTING /tmp/ccpxN8Vn.s 			page 13

