GAS LISTING /tmp/ccF6MjdT.s 			page 1


   1              		.file	"tcb.cpp"
   2              		.option pic
   3              		.option norelax
   4              		.text
   5              	.Ltext0:
   6              		.align	2
   7              		.globl	_ZN3TCB12createThreadEPFvPvES0_S0_
   9              	_ZN3TCB12createThreadEPFvPvES0_S0_:
  10              	.LFB43:
  11              		.file 1 "src/tcb.cpp"
   1:src/tcb.cpp   **** #include "../h/tcb.hpp"
   2:src/tcb.cpp   **** #include "../h/riscv.hpp"
   3:src/tcb.cpp   **** #include "../h/printing.hpp"
   4:src/tcb.cpp   **** 
   5:src/tcb.cpp   **** 
   6:src/tcb.cpp   **** //inicijalizacija statickih polja
   7:src/tcb.cpp   **** TCB* TCB::running;
   8:src/tcb.cpp   **** TCB *TCB::main;
   9:src/tcb.cpp   **** int TCB::ID = 1;
  10:src/tcb.cpp   **** 
  11:src/tcb.cpp   **** 
  12:src/tcb.cpp   **** TCB* TCB::createThread(Body body, void* arg, void* stack)
  13:src/tcb.cpp   **** {
  12              		.loc 1 13 1
  13              		.cfi_startproc
  14              		.cfi_personality 0x9b,DW.ref.__gxx_personality_v0
  15              		.cfi_lsda 0x1b,.LLSDA43
  16              	.LVL0:
  17 0000 130101FD 		addi	sp,sp,-48
  18              		.cfi_def_cfa_offset 48
  19 0004 23341102 		sd	ra,40(sp)
  20 0008 23308102 		sd	s0,32(sp)
  21 000c 233C9100 		sd	s1,24(sp)
  22 0010 23382101 		sd	s2,16(sp)
  23 0014 23343101 		sd	s3,8(sp)
  24              		.cfi_offset 1, -8
  25              		.cfi_offset 8, -16
  26              		.cfi_offset 9, -24
  27              		.cfi_offset 18, -32
  28              		.cfi_offset 19, -40
  29 0018 13040103 		addi	s0,sp,48
  30              		.cfi_def_cfa 8, 0
  31 001c 13090500 		mv	s2,a0
  32 0020 93890500 		mv	s3,a1
  14:src/tcb.cpp   ****     return new TCB(body, arg, (uint64*)stack);
  33              		.loc 1 14 5
  34              		.loc 1 14 45 is_stmt 0
  35 0024 13050003 		li	a0,48
  36              	.LVL1:
  37              	.LEHB0:
  38 0028 97000000 		call	_Znwm@plt
  38      E7800000 
  39              	.LVL2:
  40              	.LEHE0:
  41 0030 93040500 		mv	s1,a0
  42              	.LVL3:
  43              	.LBB9:
GAS LISTING /tmp/ccF6MjdT.s 			page 2


  44              	.LBB10:
  45              		.file 2 "src/../h/tcb.hpp"
   1:src/../h/tcb.hpp **** //
   2:src/../h/tcb.hpp **** // Created by os on 8/22/22.
   3:src/../h/tcb.hpp **** //
   4:src/../h/tcb.hpp **** 
   5:src/../h/tcb.hpp **** #ifndef PROJECT_BASE_V1_1_TCB_HPP
   6:src/../h/tcb.hpp **** #define PROJECT_BASE_V1_1_TCB_HPP
   7:src/../h/tcb.hpp **** 
   8:src/../h/tcb.hpp **** #include "../lib/hw.h"
   9:src/../h/tcb.hpp **** #include "scheduler.hpp"
  10:src/../h/tcb.hpp **** #include "../h/syscall_cpp.hpp"
  11:src/../h/tcb.hpp **** 
  12:src/../h/tcb.hpp **** 
  13:src/../h/tcb.hpp **** 
  14:src/../h/tcb.hpp **** 
  15:src/../h/tcb.hpp **** // _thread po tekstu zadatka
  16:src/../h/tcb.hpp **** class TCB
  17:src/../h/tcb.hpp **** {
  18:src/../h/tcb.hpp **** public:
  19:src/../h/tcb.hpp ****     ~TCB() { mem_free(stack); }
  20:src/../h/tcb.hpp **** 
  21:src/../h/tcb.hpp ****     bool isFinished() const { return finished; }
  22:src/../h/tcb.hpp **** 
  23:src/../h/tcb.hpp ****     void setFinished() {finished = true;}
  24:src/../h/tcb.hpp **** 
  25:src/../h/tcb.hpp ****     using Body = void (*)(void*);
  26:src/../h/tcb.hpp **** 
  27:src/../h/tcb.hpp ****     static TCB *createThread(Body body, void* arg, void* stack);
  28:src/../h/tcb.hpp **** 
  29:src/../h/tcb.hpp ****     static void yield();
  30:src/../h/tcb.hpp **** 
  31:src/../h/tcb.hpp ****     int getPid() const;
  32:src/../h/tcb.hpp **** 
  33:src/../h/tcb.hpp ****     void setPid(int pid);
  34:src/../h/tcb.hpp **** 
  35:src/../h/tcb.hpp ****     static void dispatch();
  36:src/../h/tcb.hpp **** 
  37:src/../h/tcb.hpp ****     static int exit();
  38:src/../h/tcb.hpp **** 
  39:src/../h/tcb.hpp ****     void *getArg() const;
  40:src/../h/tcb.hpp **** 
  41:src/../h/tcb.hpp ****     void setArg(void *arg);
  42:src/../h/tcb.hpp **** 
  43:src/../h/tcb.hpp **** 
  44:src/../h/tcb.hpp **** private:
  45:src/../h/tcb.hpp **** 
  46:src/../h/tcb.hpp ****     static uint64 constexpr STACK_SIZE = 1024;
  47:src/../h/tcb.hpp ****     static uint64 constexpr TIME_SLICE = 2;
  48:src/../h/tcb.hpp **** 
  49:src/../h/tcb.hpp ****     struct Context
  50:src/../h/tcb.hpp ****     {
  51:src/../h/tcb.hpp ****         uint64 ra;
  52:src/../h/tcb.hpp ****         uint64 sp;
  53:src/../h/tcb.hpp ****     };
  54:src/../h/tcb.hpp **** 
  55:src/../h/tcb.hpp ****     //ATRIBUTI KLASE
GAS LISTING /tmp/ccF6MjdT.s 			page 3


  56:src/../h/tcb.hpp ****     Body body;
  57:src/../h/tcb.hpp ****     void* arg;
  58:src/../h/tcb.hpp ****     uint64* volatile stack;
  59:src/../h/tcb.hpp ****     bool finished;
  60:src/../h/tcb.hpp ****     int pid;
  61:src/../h/tcb.hpp ****     Context context;
  62:src/../h/tcb.hpp **** 
  63:src/../h/tcb.hpp ****     static int ID;
  64:src/../h/tcb.hpp **** 
  65:src/../h/tcb.hpp **** 
  66:src/../h/tcb.hpp **** 
  67:src/../h/tcb.hpp ****     // konstruktor
  68:src/../h/tcb.hpp **** private:
  69:src/../h/tcb.hpp ****     explicit TCB(Body body, void* arg, uint64* stackS):
  70:src/../h/tcb.hpp ****             body(body),
  71:src/../h/tcb.hpp ****             arg(arg),
  72:src/../h/tcb.hpp ****             finished(false)
  46              		.loc 2 72 27
  47 0034 23302501 		sd	s2,0(a0)
  48 0038 23343501 		sd	s3,8(a0)
  49 003c 230C0500 		sb	zero,24(a0)
  73:src/../h/tcb.hpp ****     {
  74:src/../h/tcb.hpp ****         //stack = body != nullptr ? (uint64*)mem_alloc(sizeof(uint64[STACK_SIZE])) : nullptr;
  75:src/../h/tcb.hpp ****         if (body != nullptr)
  50              		.loc 2 75 9 is_stmt 1
  51 0040 63020904 		beqz	s2,.L2
  76:src/../h/tcb.hpp ****         {
  77:src/../h/tcb.hpp ****             stack = (uint64*)mem_alloc(STACK_SIZE * sizeof(uint64*));
  52              		.loc 2 77 13
  53              		.loc 2 77 39 is_stmt 0
  54 0044 37250000 		li	a0,8192
  55              	.LEHB1:
  56 0048 97000000 		call	mem_alloc@plt
  56      E7800000 
  57              	.LVL4:
  58              		.loc 2 77 19
  59 0050 23B8A400 		sd	a0,16(s1)
  78:src/../h/tcb.hpp ****             context = {(uint64) &threadWrapper,
  60              		.loc 2 78 13 is_stmt 1
  79:src/../h/tcb.hpp ****                        (uint64) &stack[DEFAULT_STACK_SIZE]};
  61              		.loc 2 79 34 is_stmt 0
  62 0054 83B70401 		ld	a5,16(s1)
  63              		.loc 2 79 33
  64 0058 37870000 		li	a4,32768
  65 005c B387E700 		add	a5,a5,a4
  78:src/../h/tcb.hpp ****             context = {(uint64) &threadWrapper,
  66              		.loc 2 78 21
  67 0060 17070000 		lla	a4,_ZN3TCB13threadWrapperEv
  67      13070700 
  68 0068 23B0E402 		sd	a4,32(s1)
  69 006c 23B4F402 		sd	a5,40(s1)
  70              	.L3:
  80:src/../h/tcb.hpp **** 
  81:src/../h/tcb.hpp ****         }
  82:src/../h/tcb.hpp ****         else
  83:src/../h/tcb.hpp ****         {
  84:src/../h/tcb.hpp ****             stack = nullptr;
GAS LISTING /tmp/ccF6MjdT.s 			page 4


  85:src/../h/tcb.hpp ****             context = {0, 0};
  86:src/../h/tcb.hpp ****         }
  87:src/../h/tcb.hpp ****         if (body != nullptr) { Scheduler::put(this); }
  71              		.loc 2 87 9 is_stmt 1
  72 0070 63000904 		beqz	s2,.L4
  73              		.loc 2 87 32
  74              		.loc 2 87 46 is_stmt 0
  75 0074 13850400 		mv	a0,s1
  76 0078 97000000 		call	_ZN9Scheduler3putEP3TCB@plt
  76      E7800000 
  77              	.LVL5:
  78              	.LEHE1:
  79 0080 6F000003 		j	.L4
  80              	.L2:
  84:src/../h/tcb.hpp ****             context = {0, 0};
  81              		.loc 2 84 13 is_stmt 1
  84:src/../h/tcb.hpp ****             context = {0, 0};
  82              		.loc 2 84 19 is_stmt 0
  83 0084 23380500 		sd	zero,16(a0)
  85:src/../h/tcb.hpp ****         }
  84              		.loc 2 85 13 is_stmt 1
  85:src/../h/tcb.hpp ****         }
  85              		.loc 2 85 21 is_stmt 0
  86 0088 23300502 		sd	zero,32(a0)
  87 008c 23340502 		sd	zero,40(a0)
  88 0090 6FF01FFE 		j	.L3
  89              	.L6:
  90 0094 13090500 		mv	s2,a0
  91              	.LVL6:
  92              	.LBE10:
  93              	.LBE9:
  94              		.loc 1 14 45
  95 0098 13850400 		mv	a0,s1
  96 009c 97000000 		call	_ZdlPv@plt
  96      E7800000 
  97              	.LVL7:
  98 00a4 13050900 		mv	a0,s2
  99              	.LEHB2:
 100 00a8 97000000 		call	_Unwind_Resume@plt
 100      E7800000 
 101              	.LVL8:
 102              	.LEHE2:
 103              	.L4:
 104              	.LBB12:
 105              	.LBB11:
  88:src/../h/tcb.hpp ****         pid = ID++;
 106              		.loc 2 88 9 is_stmt 1
 107              		.loc 2 88 17 is_stmt 0
 108 00b0 17070000 		lla	a4,.LANCHOR0
 108      13070700 
 109 00b8 83270700 		lw	a5,0(a4)
 110 00bc 9B861700 		addiw	a3,a5,1
 111 00c0 2320D700 		sw	a3,0(a4)
 112              		.loc 2 88 13
 113 00c4 23AEF400 		sw	a5,28(s1)
 114              	.LVL9:
 115              	.LBE11:
GAS LISTING /tmp/ccF6MjdT.s 			page 5


 116              	.LBE12:
  15:src/tcb.cpp   **** }
 117              		.loc 1 15 1
 118 00c8 13850400 		mv	a0,s1
 119 00cc 83308102 		ld	ra,40(sp)
 120              		.cfi_restore 1
 121 00d0 03340102 		ld	s0,32(sp)
 122              		.cfi_restore 8
 123              		.cfi_def_cfa 2, 48
 124 00d4 83348101 		ld	s1,24(sp)
 125              		.cfi_restore 9
 126 00d8 03390101 		ld	s2,16(sp)
 127              		.cfi_restore 18
 128              	.LVL10:
 129 00dc 83398100 		ld	s3,8(sp)
 130              		.cfi_restore 19
 131              	.LVL11:
 132 00e0 13010103 		addi	sp,sp,48
 133              		.cfi_def_cfa_offset 0
 134 00e4 67800000 		jr	ra
 135              		.cfi_endproc
 136              	.LFE43:
 137              		.globl	__gxx_personality_v0
 138              		.section	.gcc_except_table,"a",@progbits
 139              	.LLSDA43:
 140 0000 FF       		.byte	0xff
 141 0001 FF       		.byte	0xff
 142 0002 03       		.byte	0x3
 143 0003 27       		.byte	0x27
 144 0004 00000000 		.4byte	.LEHB0-.LFB43
 145 0008 00000000 		.4byte	.LEHE0-.LEHB0
 146 000c 00000000 		.4byte	0
 147 0010 00       		.byte	0
 148 0011 00000000 		.4byte	.LEHB1-.LFB43
 149 0015 00000000 		.4byte	.LEHE1-.LEHB1
 150 0019 00000000 		.4byte	.L6-.LFB43
 151 001d 00       		.byte	0
 152 001e 00000000 		.4byte	.LEHB2-.LFB43
 153 0022 00000000 		.4byte	.LEHE2-.LEHB2
 154 0026 00000000 		.4byte	0
 155 002a 00       		.byte	0
 156              		.text
 158              		.align	2
 159              		.globl	_ZN3TCB5yieldEv
 161              	_ZN3TCB5yieldEv:
 162              	.LFB44:
  16:src/tcb.cpp   **** 
  17:src/tcb.cpp   **** void TCB::yield()
  18:src/tcb.cpp   **** {
 163              		.loc 1 18 1 is_stmt 1
 164              		.cfi_startproc
 165 00e8 130101FF 		addi	sp,sp,-16
 166              		.cfi_def_cfa_offset 16
 167 00ec 23348100 		sd	s0,8(sp)
 168              		.cfi_offset 8, -8
 169 00f0 13040101 		addi	s0,sp,16
 170              		.cfi_def_cfa 8, 0
GAS LISTING /tmp/ccF6MjdT.s 			page 6


  19:src/tcb.cpp   ****     __asm__ volatile ("ecall");
 171              		.loc 1 19 5
 172              		.loc 1 19 31 is_stmt 0
 173              	#APP
 174              	# 19 "src/tcb.cpp" 1
  20              	}
 175              		ecall
 176              	# 0 "" 2
 177              		.loc 1 20 1
 178              	#NO_APP
 179 00f8 03348100 		ld	s0,8(sp)
 180              		.cfi_restore 8
 181              		.cfi_def_cfa 2, 16
 182 00fc 13010101 		addi	sp,sp,16
 183              		.cfi_def_cfa_offset 0
 184 0100 67800000 		jr	ra
 185              		.cfi_endproc
 186              	.LFE44:
 188              		.align	2
 189              		.globl	_ZN3TCB8dispatchEv
 191              	_ZN3TCB8dispatchEv:
 192              	.LFB45:
  21:src/tcb.cpp   **** 
  22:src/tcb.cpp   **** void TCB::dispatch()
  23:src/tcb.cpp   **** {
 193              		.loc 1 23 1 is_stmt 1
 194              		.cfi_startproc
 195 0104 130101FE 		addi	sp,sp,-32
 196              		.cfi_def_cfa_offset 32
 197 0108 233C1100 		sd	ra,24(sp)
 198 010c 23388100 		sd	s0,16(sp)
 199 0110 23349100 		sd	s1,8(sp)
 200              		.cfi_offset 1, -8
 201              		.cfi_offset 8, -16
 202              		.cfi_offset 9, -24
 203 0114 13040102 		addi	s0,sp,32
 204              		.cfi_def_cfa 8, 0
  24:src/tcb.cpp   ****     TCB *old = running;
 205              		.loc 1 24 5
 206              		.loc 1 24 10 is_stmt 0
 207 0118 97040000 		ld	s1,.LANCHOR1
 207      83B40400 
 208              	.LVL12:
  25:src/tcb.cpp   ****     if (old!= nullptr && !old->isFinished()) { Scheduler::put(old); }
 209              		.loc 1 25 5 is_stmt 1
 210              		.loc 1 25 23 is_stmt 0
 211 0120 63860400 		beqz	s1,.L12
 212              	.LVL13:
 213              	.LBB13:
 214              	.LBB14:
  21:src/../h/tcb.hpp **** 
 215              		.loc 2 21 31 is_stmt 1
  21:src/../h/tcb.hpp **** 
 216              		.loc 2 21 38 is_stmt 0
 217 0124 83C78401 		lbu	a5,24(s1)
 218              	.LVL14:
 219              	.LBE14:
GAS LISTING /tmp/ccF6MjdT.s 			page 7


 220              	.LBE13:
 221              		.loc 1 25 23
 222 0128 638C0702 		beqz	a5,.L14
 223              	.L12:
  26:src/tcb.cpp   ****     TCB *newT = running = Scheduler::get();
 224              		.loc 1 26 5 is_stmt 1
 225              		.loc 1 26 41 is_stmt 0
 226 012c 97000000 		call	_ZN9Scheduler3getEv@plt
 226      E7800000 
 227              	.LVL15:
 228              		.loc 1 26 25
 229 0134 97070000 		sd	a0,.LANCHOR1,a5
 229      23B0A700 
 230              	.LVL16:
  27:src/tcb.cpp   **** 
  28:src/tcb.cpp   **** 
  29:src/tcb.cpp   ****     TCB::contextSwitch(&old->context, &newT->context);
 231              		.loc 1 29 5 is_stmt 1
 232              		.loc 1 29 23 is_stmt 0
 233 013c 93050502 		addi	a1,a0,32
 234 0140 13850402 		addi	a0,s1,32
 235              	.LVL17:
 236 0144 97000000 		call	_ZN3TCB13contextSwitchEPNS_7ContextES1_@plt
 236      E7800000 
 237              	.LVL18:
  30:src/tcb.cpp   **** }
 238              		.loc 1 30 1
 239 014c 83308101 		ld	ra,24(sp)
 240              		.cfi_remember_state
 241              		.cfi_restore 1
 242 0150 03340101 		ld	s0,16(sp)
 243              		.cfi_restore 8
 244              		.cfi_def_cfa 2, 32
 245 0154 83348100 		ld	s1,8(sp)
 246              		.cfi_restore 9
 247              	.LVL19:
 248 0158 13010102 		addi	sp,sp,32
 249              		.cfi_def_cfa_offset 0
 250 015c 67800000 		jr	ra
 251              	.LVL20:
 252              	.L14:
 253              		.cfi_restore_state
  25:src/tcb.cpp   ****     TCB *newT = running = Scheduler::get();
 254              		.loc 1 25 48 is_stmt 1
  25:src/tcb.cpp   ****     TCB *newT = running = Scheduler::get();
 255              		.loc 1 25 62 is_stmt 0
 256 0160 13850400 		mv	a0,s1
 257 0164 97000000 		call	_ZN9Scheduler3putEP3TCB@plt
 257      E7800000 
 258              	.LVL21:
 259 016c 6FF01FFC 		j	.L12
 260              		.cfi_endproc
 261              	.LFE45:
 263              		.align	2
 264              		.globl	_ZN3TCB4exitEv
 266              	_ZN3TCB4exitEv:
 267              	.LFB47:
GAS LISTING /tmp/ccF6MjdT.s 			page 8


  31:src/tcb.cpp   **** 
  32:src/tcb.cpp   **** void TCB::threadWrapper()
  33:src/tcb.cpp   **** {
  34:src/tcb.cpp   ****     Riscv::popSppSpie();
  35:src/tcb.cpp   ****     running->body(running->getArg());
  36:src/tcb.cpp   ****     running->setFinished();
  37:src/tcb.cpp   ****     TCB::dispatch();
  38:src/tcb.cpp   **** }
  39:src/tcb.cpp   **** 
  40:src/tcb.cpp   **** int TCB::exit() {
 268              		.loc 1 40 17 is_stmt 1
 269              		.cfi_startproc
  41:src/tcb.cpp   ****     if (running == main) return -1;
 270              		.loc 1 41 5
 271              		.loc 1 41 17 is_stmt 0
 272 0170 97070000 		lla	a5,.LANCHOR1
 272      93870700 
 273 0178 03B70700 		ld	a4,0(a5)
 274 017c 83B78700 		ld	a5,8(a5)
 275              		.loc 1 41 5
 276 0180 6300F706 		beq	a4,a5,.L17
  40:src/tcb.cpp   ****     if (running == main) return -1;
 277              		.loc 1 40 17
 278 0184 130101FE 		addi	sp,sp,-32
 279              		.cfi_def_cfa_offset 32
 280 0188 233C1100 		sd	ra,24(sp)
 281 018c 23388100 		sd	s0,16(sp)
 282 0190 23349100 		sd	s1,8(sp)
 283              		.cfi_offset 1, -8
 284              		.cfi_offset 8, -16
 285              		.cfi_offset 9, -24
 286 0194 13040102 		addi	s0,sp,32
 287              		.cfi_def_cfa 8, 0
  42:src/tcb.cpp   ****     TCB *newThr = Scheduler::get();
 288              		.loc 1 42 5 is_stmt 1
 289              		.loc 1 42 33 is_stmt 0
 290 0198 97000000 		call	_ZN9Scheduler3getEv@plt
 290      E7800000 
 291              	.LVL22:
  43:src/tcb.cpp   ****     if(newThr) {
 292              		.loc 1 43 5 is_stmt 1
 293              	.LBB15:
 294 01a0 63040504 		beqz	a0,.L18
 295              	.LBB16:
  44:src/tcb.cpp   ****         TCB* old=running;
 296              		.loc 1 44 9
 297              		.loc 1 44 14 is_stmt 0
 298 01a4 97040000 		ld	s1,.LANCHOR1
 298      83B40400 
 299              	.LVL23:
  45:src/tcb.cpp   ****         //old->setFinished(true);
  46:src/tcb.cpp   ****         TCB::contextSwitch(&old->context, &newThr->context);
 300              		.loc 1 46 9 is_stmt 1
 301              		.loc 1 46 27 is_stmt 0
 302 01ac 93050502 		addi	a1,a0,32
 303 01b0 13850402 		addi	a0,s1,32
 304              	.LVL24:
GAS LISTING /tmp/ccF6MjdT.s 			page 9


 305 01b4 97000000 		call	_ZN3TCB13contextSwitchEPNS_7ContextES1_@plt
 305      E7800000 
 306              	.LVL25:
  47:src/tcb.cpp   ****         mem_free(old->stack); //da li ce se ikad vratiti ovde
 307              		.loc 1 47 9 is_stmt 1
 308              		.loc 1 47 23 is_stmt 0
 309 01bc 03B50401 		ld	a0,16(s1)
 310              		.loc 1 47 17
 311 01c0 97000000 		call	mem_free@plt
 311      E7800000 
 312              	.LVL26:
 313              	.LBE16:
 314              	.LBE15:
  48:src/tcb.cpp   ****     }
  49:src/tcb.cpp   ****     return 0;
 315              		.loc 1 49 12
 316 01c8 13050000 		li	a0,0
 317              	.LVL27:
 318              	.L16:
  50:src/tcb.cpp   **** }
 319              		.loc 1 50 1
 320 01cc 83308101 		ld	ra,24(sp)
 321              		.cfi_restore 1
 322 01d0 03340101 		ld	s0,16(sp)
 323              		.cfi_restore 8
 324              		.cfi_def_cfa 2, 32
 325 01d4 83348100 		ld	s1,8(sp)
 326              		.cfi_restore 9
 327 01d8 13010102 		addi	sp,sp,32
 328              		.cfi_def_cfa_offset 0
 329 01dc 67800000 		jr	ra
 330              	.L17:
  41:src/tcb.cpp   ****     TCB *newThr = Scheduler::get();
 331              		.loc 1 41 34
 332 01e0 1305F0FF 		li	a0,-1
 333              		.loc 1 50 1
 334 01e4 67800000 		ret
 335              	.LVL28:
 336              	.L18:
 337              		.cfi_def_cfa_register 8
 338              		.cfi_offset 1, -8
 339              		.cfi_offset 8, -16
 340              		.cfi_offset 9, -24
  49:src/tcb.cpp   **** }
 341              		.loc 1 49 12
 342 01e8 13050000 		li	a0,0
 343              	.LVL29:
 344 01ec 6FF01FFE 		j	.L16
 345              		.cfi_endproc
 346              	.LFE47:
 348              		.align	2
 349              		.globl	_ZNK3TCB6getPidEv
 351              	_ZNK3TCB6getPidEv:
 352              	.LFB48:
  51:src/tcb.cpp   **** 
  52:src/tcb.cpp   **** int TCB::getPid() const {
 353              		.loc 1 52 25 is_stmt 1
GAS LISTING /tmp/ccF6MjdT.s 			page 10


 354              		.cfi_startproc
 355              	.LVL30:
 356 01f0 130101FF 		addi	sp,sp,-16
 357              		.cfi_def_cfa_offset 16
 358 01f4 23348100 		sd	s0,8(sp)
 359              		.cfi_offset 8, -8
 360 01f8 13040101 		addi	s0,sp,16
 361              		.cfi_def_cfa 8, 0
  53:src/tcb.cpp   ****     return pid;
 362              		.loc 1 53 5
  54:src/tcb.cpp   **** }
 363              		.loc 1 54 1 is_stmt 0
 364 01fc 0325C501 		lw	a0,28(a0)
 365              	.LVL31:
 366 0200 03348100 		ld	s0,8(sp)
 367              		.cfi_restore 8
 368              		.cfi_def_cfa 2, 16
 369 0204 13010101 		addi	sp,sp,16
 370              		.cfi_def_cfa_offset 0
 371 0208 67800000 		jr	ra
 372              		.cfi_endproc
 373              	.LFE48:
 375              		.align	2
 376              		.globl	_ZN3TCB6setPidEi
 378              	_ZN3TCB6setPidEi:
 379              	.LFB49:
  55:src/tcb.cpp   **** 
  56:src/tcb.cpp   **** void TCB::setPid(int pid) {
 380              		.loc 1 56 27 is_stmt 1
 381              		.cfi_startproc
 382              	.LVL32:
 383 020c 130101FF 		addi	sp,sp,-16
 384              		.cfi_def_cfa_offset 16
 385 0210 23348100 		sd	s0,8(sp)
 386              		.cfi_offset 8, -8
 387 0214 13040101 		addi	s0,sp,16
 388              		.cfi_def_cfa 8, 0
  57:src/tcb.cpp   ****     TCB::pid = pid;
 389              		.loc 1 57 5
 390              		.loc 1 57 14 is_stmt 0
 391 0218 232EB500 		sw	a1,28(a0)
  58:src/tcb.cpp   **** }
 392              		.loc 1 58 1
 393 021c 03348100 		ld	s0,8(sp)
 394              		.cfi_restore 8
 395              		.cfi_def_cfa 2, 16
 396 0220 13010101 		addi	sp,sp,16
 397              		.cfi_def_cfa_offset 0
 398 0224 67800000 		jr	ra
 399              		.cfi_endproc
 400              	.LFE49:
 402              		.align	2
 403              		.globl	_ZNK3TCB6getArgEv
 405              	_ZNK3TCB6getArgEv:
 406              	.LFB50:
  59:src/tcb.cpp   **** 
  60:src/tcb.cpp   **** void *TCB::getArg() const {
GAS LISTING /tmp/ccF6MjdT.s 			page 11


 407              		.loc 1 60 27 is_stmt 1
 408              		.cfi_startproc
 409              	.LVL33:
 410 0228 130101FF 		addi	sp,sp,-16
 411              		.cfi_def_cfa_offset 16
 412 022c 23348100 		sd	s0,8(sp)
 413              		.cfi_offset 8, -8
 414 0230 13040101 		addi	s0,sp,16
 415              		.cfi_def_cfa 8, 0
  61:src/tcb.cpp   ****     return arg;
 416              		.loc 1 61 5
  62:src/tcb.cpp   **** }
 417              		.loc 1 62 1 is_stmt 0
 418 0234 03358500 		ld	a0,8(a0)
 419              	.LVL34:
 420 0238 03348100 		ld	s0,8(sp)
 421              		.cfi_restore 8
 422              		.cfi_def_cfa 2, 16
 423 023c 13010101 		addi	sp,sp,16
 424              		.cfi_def_cfa_offset 0
 425 0240 67800000 		jr	ra
 426              		.cfi_endproc
 427              	.LFE50:
 429              		.align	2
 430              		.globl	_ZN3TCB13threadWrapperEv
 432              	_ZN3TCB13threadWrapperEv:
 433              	.LFB46:
  33:src/tcb.cpp   ****     Riscv::popSppSpie();
 434              		.loc 1 33 1 is_stmt 1
 435              		.cfi_startproc
 436 0244 130101FE 		addi	sp,sp,-32
 437              		.cfi_def_cfa_offset 32
 438 0248 233C1100 		sd	ra,24(sp)
 439 024c 23388100 		sd	s0,16(sp)
 440 0250 23349100 		sd	s1,8(sp)
 441 0254 23302101 		sd	s2,0(sp)
 442              		.cfi_offset 1, -8
 443              		.cfi_offset 8, -16
 444              		.cfi_offset 9, -24
 445              		.cfi_offset 18, -32
 446 0258 13040102 		addi	s0,sp,32
 447              		.cfi_def_cfa 8, 0
  34:src/tcb.cpp   ****     running->body(running->getArg());
 448              		.loc 1 34 5
  34:src/tcb.cpp   ****     running->body(running->getArg());
 449              		.loc 1 34 22 is_stmt 0
 450 025c 97000000 		call	_ZN5Riscv10popSppSpieEv@plt
 450      E7800000 
 451              	.LVL35:
  35:src/tcb.cpp   ****     running->setFinished();
 452              		.loc 1 35 5 is_stmt 1
  35:src/tcb.cpp   ****     running->setFinished();
 453              		.loc 1 35 14 is_stmt 0
 454 0264 97040000 		lla	s1,.LANCHOR1
 454      93840400 
 455 026c 03B50400 		ld	a0,0(s1)
 456 0270 03390500 		ld	s2,0(a0)
GAS LISTING /tmp/ccF6MjdT.s 			page 12


  35:src/tcb.cpp   ****     running->setFinished();
 457              		.loc 1 35 18
 458 0274 97000000 		call	_ZNK3TCB6getArgEv
 458      E7800000 
 459              	.LVL36:
 460 027c E7000900 		jalr	s2
 461              	.LVL37:
  36:src/tcb.cpp   ****     TCB::dispatch();
 462              		.loc 1 36 5 is_stmt 1
  36:src/tcb.cpp   ****     TCB::dispatch();
 463              		.loc 1 36 25 is_stmt 0
 464 0280 83B70400 		ld	a5,0(s1)
 465              	.LVL38:
 466              	.LBB17:
 467              	.LBB18:
  23:src/../h/tcb.hpp **** 
 468              		.loc 2 23 25 is_stmt 1
  23:src/../h/tcb.hpp **** 
 469              		.loc 2 23 34 is_stmt 0
 470 0284 13071000 		li	a4,1
 471 0288 238CE700 		sb	a4,24(a5)
 472              	.LVL39:
 473              	.LBE18:
 474              	.LBE17:
  37:src/tcb.cpp   **** }
 475              		.loc 1 37 5 is_stmt 1
  37:src/tcb.cpp   **** }
 476              		.loc 1 37 18 is_stmt 0
 477 028c 97000000 		call	_ZN3TCB8dispatchEv
 477      E7800000 
 478              	.LVL40:
  38:src/tcb.cpp   **** 
 479              		.loc 1 38 1
 480 0294 83308101 		ld	ra,24(sp)
 481              		.cfi_restore 1
 482 0298 03340101 		ld	s0,16(sp)
 483              		.cfi_restore 8
 484              		.cfi_def_cfa 2, 32
 485 029c 83348100 		ld	s1,8(sp)
 486              		.cfi_restore 9
 487 02a0 03390100 		ld	s2,0(sp)
 488              		.cfi_restore 18
 489 02a4 13010102 		addi	sp,sp,32
 490              		.cfi_def_cfa_offset 0
 491 02a8 67800000 		jr	ra
 492              		.cfi_endproc
 493              	.LFE46:
 495              		.align	2
 496              		.globl	_ZN3TCB6setArgEPv
 498              	_ZN3TCB6setArgEPv:
 499              	.LFB51:
  63:src/tcb.cpp   **** 
  64:src/tcb.cpp   **** void TCB::setArg(void *arg) {
 500              		.loc 1 64 29 is_stmt 1
 501              		.cfi_startproc
 502              	.LVL41:
 503 02ac 130101FF 		addi	sp,sp,-16
GAS LISTING /tmp/ccF6MjdT.s 			page 13


 504              		.cfi_def_cfa_offset 16
 505 02b0 23348100 		sd	s0,8(sp)
 506              		.cfi_offset 8, -8
 507 02b4 13040101 		addi	s0,sp,16
 508              		.cfi_def_cfa 8, 0
  65:src/tcb.cpp   ****     TCB::arg = arg;
 509              		.loc 1 65 5
 510              		.loc 1 65 14 is_stmt 0
 511 02b8 2334B500 		sd	a1,8(a0)
  66:src/tcb.cpp   **** }
 512              		.loc 1 66 1
 513 02bc 03348100 		ld	s0,8(sp)
 514              		.cfi_restore 8
 515              		.cfi_def_cfa 2, 16
 516 02c0 13010101 		addi	sp,sp,16
 517              		.cfi_def_cfa_offset 0
 518 02c4 67800000 		jr	ra
 519              		.cfi_endproc
 520              	.LFE51:
 522              		.globl	_ZN3TCB2IDE
 523              		.globl	_ZN3TCB4mainE
 524              		.globl	_ZN3TCB7runningE
 525              		.data
 526              		.align	2
 527              		.set	.LANCHOR0,. + 0
 530              	_ZN3TCB2IDE:
 531 0000 01000000 		.word	1
 532              		.bss
 533              		.align	3
 534              		.set	.LANCHOR1,. + 0
 537              	_ZN3TCB7runningE:
 538 0000 00000000 		.zero	8
 538      00000000 
 541              	_ZN3TCB4mainE:
 542 0008 00000000 		.zero	8
 542      00000000 
 543              		.text
 544              	.Letext0:
 545              		.file 3 "src/../h/../lib/hw.h"
 546              		.file 4 "src/../h/scheduler.hpp"
 547              		.file 5 "src/../h/riscv.hpp"
 548              		.file 6 "src/../h/../h/syscall_c.h"
 549              		.file 7 "src/../h/../h/syscall_cpp.hpp"
 3196              		.align	3
 3199              	DW.ref.__gxx_personality_v0:
 3200 0000 00000000 		.dword	__gxx_personality_v0
 3200      00000000 
 3201              		.ident	"GCC: (Ubuntu 9.4.0-1ubuntu1~20.04) 9.4.0"
 3202              		.section	.note.GNU-stack,"",@progbits
GAS LISTING /tmp/ccF6MjdT.s 			page 14


DEFINED SYMBOLS
                            *ABS*:0000000000000000 tcb.cpp
     /tmp/ccF6MjdT.s:9      .text:0000000000000000 _ZN3TCB12createThreadEPFvPvES0_S0_
     /tmp/ccF6MjdT.s:13     .text:0000000000000000 .L0 
     /tmp/ccF6MjdT.s:3199   .data.rel.local.DW.ref.__gxx_personality_v0:0000000000000000 DW.ref.__gxx_personality_v0
     /tmp/ccF6MjdT.s:17     .text:0000000000000000 .L0 
     /tmp/ccF6MjdT.s:18     .text:0000000000000004 .L0 
     /tmp/ccF6MjdT.s:24     .text:0000000000000018 .L0 
     /tmp/ccF6MjdT.s:25     .text:0000000000000018 .L0 
     /tmp/ccF6MjdT.s:26     .text:0000000000000018 .L0 
     /tmp/ccF6MjdT.s:27     .text:0000000000000018 .L0 
     /tmp/ccF6MjdT.s:28     .text:0000000000000018 .L0 
     /tmp/ccF6MjdT.s:30     .text:000000000000001c .L0 
     /tmp/ccF6MjdT.s:34     .text:0000000000000024 .L0 
     /tmp/ccF6MjdT.s:35     .text:0000000000000024 .L0 
     /tmp/ccF6MjdT.s:47     .text:0000000000000034 .L0 
     /tmp/ccF6MjdT.s:51     .text:0000000000000040 .L0 
     /tmp/ccF6MjdT.s:53     .text:0000000000000044 .L0 
     /tmp/ccF6MjdT.s:54     .text:0000000000000044 .L0 
     /tmp/ccF6MjdT.s:59     .text:0000000000000050 .L0 
     /tmp/ccF6MjdT.s:61     .text:0000000000000054 .L0 
     /tmp/ccF6MjdT.s:62     .text:0000000000000054 .L0 
     /tmp/ccF6MjdT.s:64     .text:0000000000000058 .L0 
     /tmp/ccF6MjdT.s:432    .text:0000000000000244 _ZN3TCB13threadWrapperEv
     /tmp/ccF6MjdT.s:67     .text:0000000000000060 .L0 
     /tmp/ccF6MjdT.s:72     .text:0000000000000070 .L0 
     /tmp/ccF6MjdT.s:74     .text:0000000000000074 .L0 
     /tmp/ccF6MjdT.s:75     .text:0000000000000074 .L0 
     /tmp/ccF6MjdT.s:82     .text:0000000000000084 .L0 
     /tmp/ccF6MjdT.s:83     .text:0000000000000084 .L0 
     /tmp/ccF6MjdT.s:85     .text:0000000000000088 .L0 
     /tmp/ccF6MjdT.s:86     .text:0000000000000088 .L0 
     /tmp/ccF6MjdT.s:95     .text:0000000000000098 .L0 
     /tmp/ccF6MjdT.s:107    .text:00000000000000b0 .L0 
     /tmp/ccF6MjdT.s:108    .text:00000000000000b0 .L0 
     /tmp/ccF6MjdT.s:113    .text:00000000000000c4 .L0 
     /tmp/ccF6MjdT.s:118    .text:00000000000000c8 .L0 
     /tmp/ccF6MjdT.s:120    .text:00000000000000d0 .L0 
     /tmp/ccF6MjdT.s:122    .text:00000000000000d4 .L0 
     /tmp/ccF6MjdT.s:123    .text:00000000000000d4 .L0 
     /tmp/ccF6MjdT.s:125    .text:00000000000000d8 .L0 
     /tmp/ccF6MjdT.s:127    .text:00000000000000dc .L0 
     /tmp/ccF6MjdT.s:130    .text:00000000000000e0 .L0 
     /tmp/ccF6MjdT.s:133    .text:00000000000000e4 .L0 
     /tmp/ccF6MjdT.s:135    .text:00000000000000e8 .L0 
     /tmp/ccF6MjdT.s:161    .text:00000000000000e8 _ZN3TCB5yieldEv
     /tmp/ccF6MjdT.s:164    .text:00000000000000e8 .L0 
     /tmp/ccF6MjdT.s:165    .text:00000000000000e8 .L0 
     /tmp/ccF6MjdT.s:166    .text:00000000000000ec .L0 
     /tmp/ccF6MjdT.s:168    .text:00000000000000f0 .L0 
     /tmp/ccF6MjdT.s:170    .text:00000000000000f4 .L0 
     /tmp/ccF6MjdT.s:172    .text:00000000000000f4 .L0 
         src/tcb.cpp:19     .text:00000000000000f4 .L0 
     /tmp/ccF6MjdT.s:179    .text:00000000000000f8 .L0 
     /tmp/ccF6MjdT.s:180    .text:00000000000000fc .L0 
     /tmp/ccF6MjdT.s:181    .text:00000000000000fc .L0 
     /tmp/ccF6MjdT.s:183    .text:0000000000000100 .L0 
GAS LISTING /tmp/ccF6MjdT.s 			page 15


     /tmp/ccF6MjdT.s:185    .text:0000000000000104 .L0 
     /tmp/ccF6MjdT.s:191    .text:0000000000000104 _ZN3TCB8dispatchEv
     /tmp/ccF6MjdT.s:194    .text:0000000000000104 .L0 
     /tmp/ccF6MjdT.s:195    .text:0000000000000104 .L0 
     /tmp/ccF6MjdT.s:196    .text:0000000000000108 .L0 
     /tmp/ccF6MjdT.s:200    .text:0000000000000114 .L0 
     /tmp/ccF6MjdT.s:201    .text:0000000000000114 .L0 
     /tmp/ccF6MjdT.s:202    .text:0000000000000114 .L0 
     /tmp/ccF6MjdT.s:204    .text:0000000000000118 .L0 
     /tmp/ccF6MjdT.s:206    .text:0000000000000118 .L0 
     /tmp/ccF6MjdT.s:207    .text:0000000000000118 .L0 
     /tmp/ccF6MjdT.s:210    .text:0000000000000120 .L0 
     /tmp/ccF6MjdT.s:211    .text:0000000000000120 .L0 
     /tmp/ccF6MjdT.s:216    .text:0000000000000124 .L0 
     /tmp/ccF6MjdT.s:217    .text:0000000000000124 .L0 
     /tmp/ccF6MjdT.s:222    .text:0000000000000128 .L0 
     /tmp/ccF6MjdT.s:225    .text:000000000000012c .L0 
     /tmp/ccF6MjdT.s:226    .text:000000000000012c .L0 
     /tmp/ccF6MjdT.s:229    .text:0000000000000134 .L0 
     /tmp/ccF6MjdT.s:232    .text:000000000000013c .L0 
     /tmp/ccF6MjdT.s:233    .text:000000000000013c .L0 
     /tmp/ccF6MjdT.s:239    .text:000000000000014c .L0 
     /tmp/ccF6MjdT.s:240    .text:0000000000000150 .L0 
     /tmp/ccF6MjdT.s:241    .text:0000000000000150 .L0 
     /tmp/ccF6MjdT.s:243    .text:0000000000000154 .L0 
     /tmp/ccF6MjdT.s:244    .text:0000000000000154 .L0 
     /tmp/ccF6MjdT.s:246    .text:0000000000000158 .L0 
     /tmp/ccF6MjdT.s:249    .text:000000000000015c .L0 
     /tmp/ccF6MjdT.s:253    .text:0000000000000160 .L0 
     /tmp/ccF6MjdT.s:255    .text:0000000000000160 .L0 
     /tmp/ccF6MjdT.s:256    .text:0000000000000160 .L0 
     /tmp/ccF6MjdT.s:260    .text:0000000000000170 .L0 
     /tmp/ccF6MjdT.s:266    .text:0000000000000170 _ZN3TCB4exitEv
     /tmp/ccF6MjdT.s:269    .text:0000000000000170 .L0 
     /tmp/ccF6MjdT.s:270    .text:0000000000000170 .L0 
     /tmp/ccF6MjdT.s:271    .text:0000000000000170 .L0 
     /tmp/ccF6MjdT.s:272    .text:0000000000000170 .L0 
     /tmp/ccF6MjdT.s:276    .text:0000000000000180 .L0 
     /tmp/ccF6MjdT.s:278    .text:0000000000000184 .L0 
     /tmp/ccF6MjdT.s:279    .text:0000000000000188 .L0 
     /tmp/ccF6MjdT.s:283    .text:0000000000000194 .L0 
     /tmp/ccF6MjdT.s:284    .text:0000000000000194 .L0 
     /tmp/ccF6MjdT.s:285    .text:0000000000000194 .L0 
     /tmp/ccF6MjdT.s:287    .text:0000000000000198 .L0 
     /tmp/ccF6MjdT.s:289    .text:0000000000000198 .L0 
     /tmp/ccF6MjdT.s:290    .text:0000000000000198 .L0 
     /tmp/ccF6MjdT.s:294    .text:00000000000001a0 .L0 
     /tmp/ccF6MjdT.s:297    .text:00000000000001a4 .L0 
     /tmp/ccF6MjdT.s:298    .text:00000000000001a4 .L0 
     /tmp/ccF6MjdT.s:301    .text:00000000000001ac .L0 
     /tmp/ccF6MjdT.s:302    .text:00000000000001ac .L0 
     /tmp/ccF6MjdT.s:308    .text:00000000000001bc .L0 
     /tmp/ccF6MjdT.s:309    .text:00000000000001bc .L0 
     /tmp/ccF6MjdT.s:311    .text:00000000000001c0 .L0 
     /tmp/ccF6MjdT.s:316    .text:00000000000001c8 .L0 
     /tmp/ccF6MjdT.s:320    .text:00000000000001cc .L0 
     /tmp/ccF6MjdT.s:321    .text:00000000000001d0 .L0 
GAS LISTING /tmp/ccF6MjdT.s 			page 16


     /tmp/ccF6MjdT.s:323    .text:00000000000001d4 .L0 
     /tmp/ccF6MjdT.s:324    .text:00000000000001d4 .L0 
     /tmp/ccF6MjdT.s:326    .text:00000000000001d8 .L0 
     /tmp/ccF6MjdT.s:328    .text:00000000000001dc .L0 
     /tmp/ccF6MjdT.s:332    .text:00000000000001e0 .L0 
     /tmp/ccF6MjdT.s:334    .text:00000000000001e4 .L0 
     /tmp/ccF6MjdT.s:337    .text:00000000000001e8 .L0 
     /tmp/ccF6MjdT.s:338    .text:00000000000001e8 .L0 
     /tmp/ccF6MjdT.s:339    .text:00000000000001e8 .L0 
     /tmp/ccF6MjdT.s:340    .text:00000000000001e8 .L0 
     /tmp/ccF6MjdT.s:342    .text:00000000000001e8 .L0 
     /tmp/ccF6MjdT.s:345    .text:00000000000001f0 .L0 
     /tmp/ccF6MjdT.s:351    .text:00000000000001f0 _ZNK3TCB6getPidEv
     /tmp/ccF6MjdT.s:354    .text:00000000000001f0 .L0 
     /tmp/ccF6MjdT.s:356    .text:00000000000001f0 .L0 
     /tmp/ccF6MjdT.s:357    .text:00000000000001f4 .L0 
     /tmp/ccF6MjdT.s:359    .text:00000000000001f8 .L0 
     /tmp/ccF6MjdT.s:361    .text:00000000000001fc .L0 
     /tmp/ccF6MjdT.s:363    .text:00000000000001fc .L0 
     /tmp/ccF6MjdT.s:364    .text:00000000000001fc .L0 
     /tmp/ccF6MjdT.s:367    .text:0000000000000204 .L0 
     /tmp/ccF6MjdT.s:368    .text:0000000000000204 .L0 
     /tmp/ccF6MjdT.s:370    .text:0000000000000208 .L0 
     /tmp/ccF6MjdT.s:372    .text:000000000000020c .L0 
     /tmp/ccF6MjdT.s:378    .text:000000000000020c _ZN3TCB6setPidEi
     /tmp/ccF6MjdT.s:381    .text:000000000000020c .L0 
     /tmp/ccF6MjdT.s:383    .text:000000000000020c .L0 
     /tmp/ccF6MjdT.s:384    .text:0000000000000210 .L0 
     /tmp/ccF6MjdT.s:386    .text:0000000000000214 .L0 
     /tmp/ccF6MjdT.s:388    .text:0000000000000218 .L0 
     /tmp/ccF6MjdT.s:390    .text:0000000000000218 .L0 
     /tmp/ccF6MjdT.s:391    .text:0000000000000218 .L0 
     /tmp/ccF6MjdT.s:393    .text:000000000000021c .L0 
     /tmp/ccF6MjdT.s:394    .text:0000000000000220 .L0 
     /tmp/ccF6MjdT.s:395    .text:0000000000000220 .L0 
     /tmp/ccF6MjdT.s:397    .text:0000000000000224 .L0 
     /tmp/ccF6MjdT.s:399    .text:0000000000000228 .L0 
     /tmp/ccF6MjdT.s:405    .text:0000000000000228 _ZNK3TCB6getArgEv
     /tmp/ccF6MjdT.s:408    .text:0000000000000228 .L0 
     /tmp/ccF6MjdT.s:410    .text:0000000000000228 .L0 
     /tmp/ccF6MjdT.s:411    .text:000000000000022c .L0 
     /tmp/ccF6MjdT.s:413    .text:0000000000000230 .L0 
     /tmp/ccF6MjdT.s:415    .text:0000000000000234 .L0 
     /tmp/ccF6MjdT.s:417    .text:0000000000000234 .L0 
     /tmp/ccF6MjdT.s:418    .text:0000000000000234 .L0 
     /tmp/ccF6MjdT.s:421    .text:000000000000023c .L0 
     /tmp/ccF6MjdT.s:422    .text:000000000000023c .L0 
     /tmp/ccF6MjdT.s:424    .text:0000000000000240 .L0 
     /tmp/ccF6MjdT.s:426    .text:0000000000000244 .L0 
     /tmp/ccF6MjdT.s:435    .text:0000000000000244 .L0 
     /tmp/ccF6MjdT.s:436    .text:0000000000000244 .L0 
     /tmp/ccF6MjdT.s:437    .text:0000000000000248 .L0 
     /tmp/ccF6MjdT.s:442    .text:0000000000000258 .L0 
     /tmp/ccF6MjdT.s:443    .text:0000000000000258 .L0 
     /tmp/ccF6MjdT.s:444    .text:0000000000000258 .L0 
     /tmp/ccF6MjdT.s:445    .text:0000000000000258 .L0 
     /tmp/ccF6MjdT.s:447    .text:000000000000025c .L0 
GAS LISTING /tmp/ccF6MjdT.s 			page 17


     /tmp/ccF6MjdT.s:449    .text:000000000000025c .L0 
     /tmp/ccF6MjdT.s:450    .text:000000000000025c .L0 
     /tmp/ccF6MjdT.s:453    .text:0000000000000264 .L0 
     /tmp/ccF6MjdT.s:454    .text:0000000000000264 .L0 
     /tmp/ccF6MjdT.s:458    .text:0000000000000274 .L0 
     /tmp/ccF6MjdT.s:463    .text:0000000000000280 .L0 
     /tmp/ccF6MjdT.s:464    .text:0000000000000280 .L0 
     /tmp/ccF6MjdT.s:469    .text:0000000000000284 .L0 
     /tmp/ccF6MjdT.s:470    .text:0000000000000284 .L0 
     /tmp/ccF6MjdT.s:476    .text:000000000000028c .L0 
     /tmp/ccF6MjdT.s:477    .text:000000000000028c .L0 
     /tmp/ccF6MjdT.s:480    .text:0000000000000294 .L0 
     /tmp/ccF6MjdT.s:481    .text:0000000000000298 .L0 
     /tmp/ccF6MjdT.s:483    .text:000000000000029c .L0 
     /tmp/ccF6MjdT.s:484    .text:000000000000029c .L0 
     /tmp/ccF6MjdT.s:486    .text:00000000000002a0 .L0 
     /tmp/ccF6MjdT.s:488    .text:00000000000002a4 .L0 
     /tmp/ccF6MjdT.s:490    .text:00000000000002a8 .L0 
     /tmp/ccF6MjdT.s:492    .text:00000000000002ac .L0 
     /tmp/ccF6MjdT.s:498    .text:00000000000002ac _ZN3TCB6setArgEPv
     /tmp/ccF6MjdT.s:501    .text:00000000000002ac .L0 
     /tmp/ccF6MjdT.s:503    .text:00000000000002ac .L0 
     /tmp/ccF6MjdT.s:504    .text:00000000000002b0 .L0 
     /tmp/ccF6MjdT.s:506    .text:00000000000002b4 .L0 
     /tmp/ccF6MjdT.s:508    .text:00000000000002b8 .L0 
     /tmp/ccF6MjdT.s:510    .text:00000000000002b8 .L0 
     /tmp/ccF6MjdT.s:511    .text:00000000000002b8 .L0 
     /tmp/ccF6MjdT.s:513    .text:00000000000002bc .L0 
     /tmp/ccF6MjdT.s:514    .text:00000000000002c0 .L0 
     /tmp/ccF6MjdT.s:515    .text:00000000000002c0 .L0 
     /tmp/ccF6MjdT.s:517    .text:00000000000002c4 .L0 
     /tmp/ccF6MjdT.s:519    .text:00000000000002c8 .L0 
     /tmp/ccF6MjdT.s:530    .data:0000000000000000 _ZN3TCB2IDE
     /tmp/ccF6MjdT.s:541    .bss:0000000000000008 _ZN3TCB4mainE
     /tmp/ccF6MjdT.s:537    .bss:0000000000000000 _ZN3TCB7runningE
     /tmp/ccF6MjdT.s:527    .data:0000000000000000 .LANCHOR0
     /tmp/ccF6MjdT.s:534    .bss:0000000000000000 .LANCHOR1
     /tmp/ccF6MjdT.s:550    .text:00000000000002c8 .L0 
     /tmp/ccF6MjdT.s:67     .text:0000000000000060 .L0 
     /tmp/ccF6MjdT.s:108    .text:00000000000000b0 .L0 
     /tmp/ccF6MjdT.s:207    .text:0000000000000118 .L0 
     /tmp/ccF6MjdT.s:229    .text:0000000000000134 .L0 
     /tmp/ccF6MjdT.s:272    .text:0000000000000170 .L0 
     /tmp/ccF6MjdT.s:298    .text:00000000000001a4 .L0 
     /tmp/ccF6MjdT.s:454    .text:0000000000000264 .L0 
     /tmp/ccF6MjdT.s:80     .text:0000000000000084 .L2
     /tmp/ccF6MjdT.s:103    .text:00000000000000b0 .L4
     /tmp/ccF6MjdT.s:70     .text:0000000000000070 .L3
     /tmp/ccF6MjdT.s:223    .text:000000000000012c .L12
     /tmp/ccF6MjdT.s:252    .text:0000000000000160 .L14
     /tmp/ccF6MjdT.s:330    .text:00000000000001e0 .L17
     /tmp/ccF6MjdT.s:336    .text:00000000000001e8 .L18
     /tmp/ccF6MjdT.s:318    .text:00000000000001cc .L16
     /tmp/ccF6MjdT.s:37     .text:0000000000000028 .LEHB0
     /tmp/ccF6MjdT.s:10     .text:0000000000000000 .LFB43
     /tmp/ccF6MjdT.s:40     .text:0000000000000030 .LEHE0
     /tmp/ccF6MjdT.s:55     .text:0000000000000048 .LEHB1
GAS LISTING /tmp/ccF6MjdT.s 			page 18


     /tmp/ccF6MjdT.s:78     .text:0000000000000080 .LEHE1
     /tmp/ccF6MjdT.s:89     .text:0000000000000094 .L6
     /tmp/ccF6MjdT.s:99     .text:00000000000000a8 .LEHB2
     /tmp/ccF6MjdT.s:102    .text:00000000000000b0 .LEHE2
     /tmp/ccF6MjdT.s:1667   .debug_abbrev:0000000000000000 .Ldebug_abbrev0
     /tmp/ccF6MjdT.s:3155   .debug_str:000000000000056b .LASF105
     /tmp/ccF6MjdT.s:3075   .debug_str:000000000000033f .LASF106
     /tmp/ccF6MjdT.s:3145   .debug_str:00000000000004f8 .LASF107
     /tmp/ccF6MjdT.s:5      .text:0000000000000000 .Ltext0
     /tmp/ccF6MjdT.s:544    .text:00000000000002c8 .Letext0
     /tmp/ccF6MjdT.s:2955   .debug_line:0000000000000000 .Ldebug_line0
     /tmp/ccF6MjdT.s:3091   .debug_str:000000000000039f .LASF0
     /tmp/ccF6MjdT.s:3105   .debug_str:00000000000003e4 .LASF1
     /tmp/ccF6MjdT.s:3079   .debug_str:0000000000000352 .LASF2
     /tmp/ccF6MjdT.s:3051   .debug_str:00000000000002a8 .LASF4
     /tmp/ccF6MjdT.s:3133   .debug_str:000000000000049f .LASF3
     /tmp/ccF6MjdT.s:2977   .debug_str:0000000000000055 .LASF5
     /tmp/ccF6MjdT.s:3107   .debug_str:00000000000003f7 .LASF6
     /tmp/ccF6MjdT.s:3089   .debug_str:000000000000038c .LASF7
     /tmp/ccF6MjdT.s:3163   .debug_str:000000000000065e .LASF8
     /tmp/ccF6MjdT.s:3037   .debug_str:0000000000000215 .LASF9
     /tmp/ccF6MjdT.s:3115   .debug_str:0000000000000424 .LASF10
     /tmp/ccF6MjdT.s:3157   .debug_str:000000000000062f .LASF11
     /tmp/ccF6MjdT.s:2979   .debug_str:000000000000005c .LASF12
     /tmp/ccF6MjdT.s:2961   .debug_str:0000000000000012 .LASF13
     /tmp/ccF6MjdT.s:2991   .debug_str:00000000000000be .LASF14
     /tmp/ccF6MjdT.s:3127   .debug_str:000000000000046b .LASF15
     /tmp/ccF6MjdT.s:3003   .debug_str:000000000000010d .LASF16
     /tmp/ccF6MjdT.s:3113   .debug_str:000000000000041a .LASF17
     /tmp/ccF6MjdT.s:3025   .debug_str:00000000000001ba .LASF45
     /tmp/ccF6MjdT.s:3047   .debug_str:000000000000026c .LASF108
     /tmp/ccF6MjdT.s:2987   .debug_str:000000000000009c .LASF109
     /tmp/ccF6MjdT.s:3071   .debug_str:000000000000031f .LASF110
     /tmp/ccF6MjdT.s:2967   .debug_str:0000000000000031 .LASF111
     /tmp/ccF6MjdT.s:3009   .debug_str:0000000000000159 .LASF18
     /tmp/ccF6MjdT.s:3121   .debug_str:000000000000044f .LASF20
     /tmp/ccF6MjdT.s:3109   .debug_str:000000000000040a .LASF24
     /tmp/ccF6MjdT.s:3035   .debug_str:00000000000001fe .LASF26
     /tmp/ccF6MjdT.s:3081   .debug_str:0000000000000360 .LASF19
     /tmp/ccF6MjdT.s:3069   .debug_str:0000000000000308 .LASF21
     /tmp/ccF6MjdT.s:3061   .debug_str:00000000000002cc .LASF22
     /tmp/ccF6MjdT.s:3165   .debug_str:000000000000066e .LASF23
     /tmp/ccF6MjdT.s:3123   .debug_str:000000000000045b .LASF112
     /tmp/ccF6MjdT.s:3129   .debug_str:0000000000000481 .LASF30
     /tmp/ccF6MjdT.s:3085   .debug_str:0000000000000376 .LASF32
     /tmp/ccF6MjdT.s:3011   .debug_str:000000000000015e .LASF25
     /tmp/ccF6MjdT.s:3159   .debug_str:000000000000063e .LASF27
     /tmp/ccF6MjdT.s:2995   .debug_str:00000000000000d0 .LASF28
     /tmp/ccF6MjdT.s:3031   .debug_str:00000000000001e6 .LASF29
     /tmp/ccF6MjdT.s:3095   .debug_str:00000000000003b3 .LASF31
     /tmp/ccF6MjdT.s:3021   .debug_str:00000000000001a2 .LASF33
     /tmp/ccF6MjdT.s:3111   .debug_str:0000000000000415 .LASF34
     /tmp/ccF6MjdT.s:2981   .debug_str:000000000000006c .LASF54
     /tmp/ccF6MjdT.s:3057   .debug_str:00000000000002bd .LASF35
     /tmp/ccF6MjdT.s:3097   .debug_str:00000000000003bc .LASF36
     /tmp/ccF6MjdT.s:3033   .debug_str:00000000000001f7 .LASF37
     /tmp/ccF6MjdT.s:3175   .debug_str:00000000000006cf .LASF38
GAS LISTING /tmp/ccF6MjdT.s 			page 19


     /tmp/ccF6MjdT.s:3065   .debug_str:00000000000002ef .LASF39
     /tmp/ccF6MjdT.s:3043   .debug_str:0000000000000252 .LASF40
     /tmp/ccF6MjdT.s:3055   .debug_str:00000000000002b8 .LASF41
     /tmp/ccF6MjdT.s:2993   .debug_str:00000000000000ca .LASF42
     /tmp/ccF6MjdT.s:3053   .debug_str:00000000000002af .LASF43
     /tmp/ccF6MjdT.s:3059   .debug_str:00000000000002c4 .LASF44
     /tmp/ccF6MjdT.s:3183   .debug_str:0000000000000711 .LASF113
     /tmp/ccF6MjdT.s:3015   .debug_str:0000000000000171 .LASF46
     /tmp/ccF6MjdT.s:2985   .debug_str:0000000000000097 .LASF47
     /tmp/ccF6MjdT.s:3171   .debug_str:00000000000006ad .LASF48
     /tmp/ccF6MjdT.s:3049   .debug_str:0000000000000280 .LASF114
     /tmp/ccF6MjdT.s:3067   .debug_str:00000000000002fa .LASF88
     /tmp/ccF6MjdT.s:3041   .debug_str:0000000000000239 .LASF90
     /tmp/ccF6MjdT.s:3023   .debug_str:00000000000001b5 .LASF49
     /tmp/ccF6MjdT.s:3101   .debug_str:00000000000003d3 .LASF50
     /tmp/ccF6MjdT.s:3125   .debug_str:0000000000000460 .LASF51
     /tmp/ccF6MjdT.s:3181   .debug_str:00000000000006f9 .LASF52
     /tmp/ccF6MjdT.s:2963   .debug_str:0000000000000022 .LASF53
     /tmp/ccF6MjdT.s:3017   .debug_str:0000000000000179 .LASF55
     /tmp/ccF6MjdT.s:2999   .debug_str:00000000000000ec .LASF58
     /tmp/ccF6MjdT.s:2997   .debug_str:00000000000000d7 .LASF60
     /tmp/ccF6MjdT.s:3135   .debug_str:00000000000004b1 .LASF56
     /tmp/ccF6MjdT.s:3119   .debug_str:000000000000043c .LASF57
     /tmp/ccF6MjdT.s:3153   .debug_str:0000000000000564 .LASF59
     /tmp/ccF6MjdT.s:3149   .debug_str:000000000000053f .LASF61
     /tmp/ccF6MjdT.s:3029   .debug_str:00000000000001de .LASF62
     /tmp/ccF6MjdT.s:3005   .debug_str:0000000000000123 .LASF63
     /tmp/ccF6MjdT.s:2959   .debug_str:000000000000000a .LASF64
     /tmp/ccF6MjdT.s:3137   .debug_str:00000000000004b8 .LASF65
     /tmp/ccF6MjdT.s:2975   .debug_str:000000000000004d .LASF66
     /tmp/ccF6MjdT.s:3173   .debug_str:00000000000006bb .LASF67
     /tmp/ccF6MjdT.s:3187   .debug_str:0000000000000732 .LASF68
     /tmp/ccF6MjdT.s:3019   .debug_str:000000000000018e .LASF69
     /tmp/ccF6MjdT.s:3093   .debug_str:00000000000003ac .LASF70
     /tmp/ccF6MjdT.s:3177   .debug_str:00000000000006e1 .LASF71
     /tmp/ccF6MjdT.s:2973   .debug_str:0000000000000046 .LASF72
     /tmp/ccF6MjdT.s:3027   .debug_str:00000000000001cb .LASF73
     /tmp/ccF6MjdT.s:3087   .debug_str:0000000000000386 .LASF74
     /tmp/ccF6MjdT.s:3151   .debug_str:0000000000000552 .LASF75
     /tmp/ccF6MjdT.s:2971   .debug_str:0000000000000040 .LASF76
     /tmp/ccF6MjdT.s:3191   .debug_str:000000000000074b .LASF77
     /tmp/ccF6MjdT.s:3185   .debug_str:0000000000000727 .LASF78
     /tmp/ccF6MjdT.s:3131   .debug_str:0000000000000487 .LASF79
     /tmp/ccF6MjdT.s:3103   .debug_str:00000000000003d9 .LASF80
     /tmp/ccF6MjdT.s:3147   .debug_str:0000000000000527 .LASF81
     /tmp/ccF6MjdT.s:2989   .debug_str:00000000000000b4 .LASF82
     /tmp/ccF6MjdT.s:3073   .debug_str:0000000000000329 .LASF83
     /tmp/ccF6MjdT.s:3083   .debug_str:000000000000036c .LASF84
     /tmp/ccF6MjdT.s:3039   .debug_str:0000000000000223 .LASF85
     /tmp/ccF6MjdT.s:3139   .debug_str:00000000000004cc .LASF86
     /tmp/ccF6MjdT.s:2983   .debug_str:000000000000007b .LASF87
     /tmp/ccF6MjdT.s:3167   .debug_str:0000000000000691 .LASF89
     /tmp/ccF6MjdT.s:3007   .debug_str:0000000000000137 .LASF91
     /tmp/ccF6MjdT.s:3189   .debug_str:000000000000073a .LASF92
     /tmp/ccF6MjdT.s:3161   .debug_str:0000000000000650 .LASF93
     /tmp/ccF6MjdT.s:3013   .debug_str:0000000000000165 .LASF94
     /tmp/ccF6MjdT.s:499    .text:00000000000002ac .LFB51
GAS LISTING /tmp/ccF6MjdT.s 			page 20


     /tmp/ccF6MjdT.s:520    .text:00000000000002c8 .LFE51
     /tmp/ccF6MjdT.s:3179   .debug_str:00000000000006f4 .LASF95
     /tmp/ccF6MjdT.s:406    .text:0000000000000228 .LFB50
     /tmp/ccF6MjdT.s:427    .text:0000000000000244 .LFE50
     /tmp/ccF6MjdT.s:2742   .debug_loc:0000000000000000 .LLST13
     /tmp/ccF6MjdT.s:379    .text:000000000000020c .LFB49
     /tmp/ccF6MjdT.s:400    .text:0000000000000228 .LFE49
     /tmp/ccF6MjdT.s:352    .text:00000000000001f0 .LFB48
     /tmp/ccF6MjdT.s:373    .text:000000000000020c .LFE48
     /tmp/ccF6MjdT.s:2756   .debug_loc:0000000000000039 .LLST12
     /tmp/ccF6MjdT.s:267    .text:0000000000000170 .LFB47
     /tmp/ccF6MjdT.s:346    .text:00000000000001f0 .LFE47
     /tmp/ccF6MjdT.s:3169   .debug_str:00000000000006a6 .LASF96
     /tmp/ccF6MjdT.s:2770   .debug_loc:0000000000000072 .LLST10
     /tmp/ccF6MjdT.s:295    .text:00000000000001a4 .LBB16
     /tmp/ccF6MjdT.s:313    .text:00000000000001c8 .LBE16
     /tmp/ccF6MjdT.s:2787   .debug_loc:00000000000000bd .LLST11
     /tmp/ccF6MjdT.s:306    .text:00000000000001bc .LVL25
     /tmp/ccF6MjdT.s:312    .text:00000000000001c8 .LVL26
     /tmp/ccF6MjdT.s:291    .text:00000000000001a0 .LVL22
     /tmp/ccF6MjdT.s:433    .text:0000000000000244 .LFB46
     /tmp/ccF6MjdT.s:493    .text:00000000000002ac .LFE46
     /tmp/ccF6MjdT.s:466    .text:0000000000000284 .LBB17
     /tmp/ccF6MjdT.s:474    .text:000000000000028c .LBE17
     /tmp/ccF6MjdT.s:2794   .debug_loc:00000000000000e0 .LLST14
     /tmp/ccF6MjdT.s:451    .text:0000000000000264 .LVL35
     /tmp/ccF6MjdT.s:459    .text:000000000000027c .LVL36
     /tmp/ccF6MjdT.s:461    .text:0000000000000280 .LVL37
     /tmp/ccF6MjdT.s:478    .text:0000000000000294 .LVL40
     /tmp/ccF6MjdT.s:192    .text:0000000000000104 .LFB45
     /tmp/ccF6MjdT.s:261    .text:0000000000000170 .LFE45
     /tmp/ccF6MjdT.s:2801   .debug_loc:0000000000000103 .LLST7
     /tmp/ccF6MjdT.s:3099   .debug_str:00000000000003ce .LASF97
     /tmp/ccF6MjdT.s:2812   .debug_loc:0000000000000139 .LLST8
     /tmp/ccF6MjdT.s:213    .text:0000000000000124 .LBB13
     /tmp/ccF6MjdT.s:220    .text:0000000000000128 .LBE13
     /tmp/ccF6MjdT.s:2824   .debug_loc:0000000000000177 .LLST9
     /tmp/ccF6MjdT.s:227    .text:0000000000000134 .LVL15
     /tmp/ccF6MjdT.s:237    .text:000000000000014c .LVL18
     /tmp/ccF6MjdT.s:258    .text:000000000000016c .LVL21
     /tmp/ccF6MjdT.s:162    .text:00000000000000e8 .LFB44
     /tmp/ccF6MjdT.s:186    .text:0000000000000104 .LFE44
     /tmp/ccF6MjdT.s:136    .text:00000000000000e8 .LFE43
     /tmp/ccF6MjdT.s:2831   .debug_loc:000000000000019a .LLST0
     /tmp/ccF6MjdT.s:2860   .debug_loc:000000000000020f .LLST1
     /tmp/ccF6MjdT.s:2878   .debug_loc:000000000000025b .LLST2
     /tmp/ccF6MjdT.s:43     .text:0000000000000034 .LBB9
     /tmp/ccF6MjdT.s:2947   .debug_ranges:0000000000000000 .Ldebug_ranges0
     /tmp/ccF6MjdT.s:2892   .debug_loc:0000000000000294 .LLST3
     /tmp/ccF6MjdT.s:2902   .debug_loc:00000000000002ba .LLST4
     /tmp/ccF6MjdT.s:2909   .debug_loc:00000000000002dd .LLST5
     /tmp/ccF6MjdT.s:2927   .debug_loc:0000000000000329 .LLST6
     /tmp/ccF6MjdT.s:57     .text:0000000000000050 .LVL4
     /tmp/ccF6MjdT.s:77     .text:0000000000000080 .LVL5
     /tmp/ccF6MjdT.s:39     .text:0000000000000030 .LVL2
     /tmp/ccF6MjdT.s:97     .text:00000000000000a4 .LVL7
     /tmp/ccF6MjdT.s:101    .text:00000000000000b0 .LVL8
GAS LISTING /tmp/ccF6MjdT.s 			page 21


     /tmp/ccF6MjdT.s:3077   .debug_str:000000000000034b .LASF98
     /tmp/ccF6MjdT.s:3063   .debug_str:00000000000002d9 .LASF115
     /tmp/ccF6MjdT.s:3117   .debug_str:0000000000000433 .LASF99
     /tmp/ccF6MjdT.s:2957   .debug_str:0000000000000000 .LASF100
     /tmp/ccF6MjdT.s:2965   .debug_str:000000000000002b .LASF101
     /tmp/ccF6MjdT.s:3143   .debug_str:00000000000004eb .LASF102
     /tmp/ccF6MjdT.s:2969   .debug_str:0000000000000039 .LASF103
     /tmp/ccF6MjdT.s:3141   .debug_str:00000000000004db .LASF104
     /tmp/ccF6MjdT.s:3045   .debug_str:000000000000025d .LASF116
     /tmp/ccF6MjdT.s:3001   .debug_str:00000000000000f5 .LASF117
     /tmp/ccF6MjdT.s:409    .text:0000000000000228 .LVL33
     /tmp/ccF6MjdT.s:419    .text:0000000000000238 .LVL34
     /tmp/ccF6MjdT.s:355    .text:00000000000001f0 .LVL30
     /tmp/ccF6MjdT.s:365    .text:0000000000000200 .LVL31
     /tmp/ccF6MjdT.s:304    .text:00000000000001b4 .LVL24
     /tmp/ccF6MjdT.s:335    .text:00000000000001e8 .LVL28
     /tmp/ccF6MjdT.s:343    .text:00000000000001ec .LVL29
     /tmp/ccF6MjdT.s:299    .text:00000000000001ac .LVL23
     /tmp/ccF6MjdT.s:317    .text:00000000000001cc .LVL27
     /tmp/ccF6MjdT.s:465    .text:0000000000000284 .LVL38
     /tmp/ccF6MjdT.s:472    .text:000000000000028c .LVL39
     /tmp/ccF6MjdT.s:208    .text:0000000000000120 .LVL12
     /tmp/ccF6MjdT.s:247    .text:0000000000000158 .LVL19
     /tmp/ccF6MjdT.s:251    .text:0000000000000160 .LVL20
     /tmp/ccF6MjdT.s:230    .text:000000000000013c .LVL16
     /tmp/ccF6MjdT.s:235    .text:0000000000000144 .LVL17
     /tmp/ccF6MjdT.s:212    .text:0000000000000124 .LVL13
     /tmp/ccF6MjdT.s:218    .text:0000000000000128 .LVL14
     /tmp/ccF6MjdT.s:16     .text:0000000000000000 .LVL0
     /tmp/ccF6MjdT.s:36     .text:0000000000000028 .LVL1
     /tmp/ccF6MjdT.s:91     .text:0000000000000098 .LVL6
     /tmp/ccF6MjdT.s:128    .text:00000000000000dc .LVL10
     /tmp/ccF6MjdT.s:131    .text:00000000000000e0 .LVL11
     /tmp/ccF6MjdT.s:42     .text:0000000000000034 .LVL3
     /tmp/ccF6MjdT.s:114    .text:00000000000000c8 .LVL9
     /tmp/ccF6MjdT.s:551    .debug_info:0000000000000000 .Ldebug_info0
     /tmp/ccF6MjdT.s:93     .text:0000000000000098 .LBE9
     /tmp/ccF6MjdT.s:104    .text:00000000000000b0 .LBB12
     /tmp/ccF6MjdT.s:116    .text:00000000000000c8 .LBE12
     /tmp/ccF6MjdT.s:139    .gcc_except_table:0000000000000000 .LLSDA43

UNDEFINED SYMBOLS
_Znwm
mem_alloc
_ZN9Scheduler3putEP3TCB
_ZdlPv
_Unwind_Resume
__gxx_personality_v0
_ZN9Scheduler3getEv
_ZN3TCB13contextSwitchEPNS_7ContextES1_
mem_free
_ZN5Riscv10popSppSpieEv
