GAS LISTING /tmp/ccPIzBZ4.s 			page 1


   1              		.file	"userMain.cpp"
   2              		.option pic
   3              		.option norelax
   4              		.text
   5              	.Ltext0:
   6              		.section	.text._ZN7WorkerAD2Ev,"axG",@progbits,_ZN7WorkerAD5Ev,comdat
   7              		.align	2
   8              		.weak	_ZN7WorkerAD2Ev
  10              	_ZN7WorkerAD2Ev:
  11              	.LFB60:
  12              		.file 1 "src/../h/Threads_CPP_API_test.hpp"
   1:src/../h/Threads_CPP_API_test.hpp **** #ifndef XV6_THREADS_CPP_API_TEST_HPP
   2:src/../h/Threads_CPP_API_test.hpp **** #define XV6_THREADS_CPP_API_TEST_HPP
   3:src/../h/Threads_CPP_API_test.hpp **** 
   4:src/../h/Threads_CPP_API_test.hpp **** #include "syscall_cpp.hpp"
   5:src/../h/Threads_CPP_API_test.hpp **** 
   6:src/../h/Threads_CPP_API_test.hpp **** #include "printing.hpp"
   7:src/../h/Threads_CPP_API_test.hpp **** Thread* threads[4];
   8:src/../h/Threads_CPP_API_test.hpp **** bool finishedA = false;
   9:src/../h/Threads_CPP_API_test.hpp **** bool finishedB = false;
  10:src/../h/Threads_CPP_API_test.hpp **** bool finishedC = false;
  11:src/../h/Threads_CPP_API_test.hpp **** bool finishedD = false;
  12:src/../h/Threads_CPP_API_test.hpp **** 
  13:src/../h/Threads_CPP_API_test.hpp **** uint64 fibonacci(uint64 n) {
  14:src/../h/Threads_CPP_API_test.hpp ****     if (n == 0 || n == 1) { return n; }
  15:src/../h/Threads_CPP_API_test.hpp ****     if (n % 10 == 0) { thread_dispatch(); }
  16:src/../h/Threads_CPP_API_test.hpp ****     return fibonacci(n - 1) + fibonacci(n - 2);
  17:src/../h/Threads_CPP_API_test.hpp **** }
  18:src/../h/Threads_CPP_API_test.hpp **** 
  19:src/../h/Threads_CPP_API_test.hpp **** class WorkerA: public Thread {
  13              		.loc 1 19 7
  14              		.cfi_startproc
  15              	.LVL0:
  16 0000 130101FF 		addi	sp,sp,-16
  17              		.cfi_def_cfa_offset 16
  18 0004 23341100 		sd	ra,8(sp)
  19 0008 23308100 		sd	s0,0(sp)
  20              		.cfi_offset 1, -8
  21              		.cfi_offset 8, -16
  22 000c 13040101 		addi	s0,sp,16
  23              		.cfi_def_cfa 8, 0
  24              	.LBB56:
  25              		.loc 1 19 7 is_stmt 0
  26 0010 97070000 		lla	a5,_ZTV7WorkerA+16
  26      93870700 
  27 0018 2330F500 		sd	a5,0(a0)
  28 001c 97000000 		call	_ZN6ThreadD2Ev@plt
  28      E7800000 
  29              	.LVL1:
  30              	.LBE56:
  31 0024 83308100 		ld	ra,8(sp)
  32              		.cfi_restore 1
  33 0028 03340100 		ld	s0,0(sp)
  34              		.cfi_restore 8
  35              		.cfi_def_cfa 2, 16
  36 002c 13010101 		addi	sp,sp,16
  37              		.cfi_def_cfa_offset 0
GAS LISTING /tmp/ccPIzBZ4.s 			page 2


  38 0030 67800000 		jr	ra
  39              		.cfi_endproc
  40              	.LFE60:
  42              		.weak	_ZN7WorkerAD1Ev
  43              		.set	_ZN7WorkerAD1Ev,_ZN7WorkerAD2Ev
  44              		.section	.text._ZN7WorkerAD0Ev,"axG",@progbits,_ZN7WorkerAD5Ev,comdat
  45              		.align	2
  46              		.weak	_ZN7WorkerAD0Ev
  48              	_ZN7WorkerAD0Ev:
  49              	.LFB62:
  50              		.loc 1 19 7 is_stmt 1
  51              		.cfi_startproc
  52              	.LVL2:
  53 0000 130101FE 		addi	sp,sp,-32
  54              		.cfi_def_cfa_offset 32
  55 0004 233C1100 		sd	ra,24(sp)
  56 0008 23388100 		sd	s0,16(sp)
  57 000c 23349100 		sd	s1,8(sp)
  58              		.cfi_offset 1, -8
  59              		.cfi_offset 8, -16
  60              		.cfi_offset 9, -24
  61 0010 13040102 		addi	s0,sp,32
  62              		.cfi_def_cfa 8, 0
  63 0014 93040500 		mv	s1,a0
  64              	.LVL3:
  65              	.LBB57:
  66              	.LBB58:
  67              		.loc 1 19 7 is_stmt 0
  68 0018 97070000 		lla	a5,_ZTV7WorkerA+16
  68      93870700 
  69 0020 2330F500 		sd	a5,0(a0)
  70 0024 97000000 		call	_ZN6ThreadD2Ev@plt
  70      E7800000 
  71              	.LVL4:
  72              	.LBE58:
  73              	.LBE57:
  74 002c 13850400 		mv	a0,s1
  75 0030 97000000 		call	_ZdlPv@plt
  75      E7800000 
  76              	.LVL5:
  77 0038 83308101 		ld	ra,24(sp)
  78              		.cfi_restore 1
  79 003c 03340101 		ld	s0,16(sp)
  80              		.cfi_restore 8
  81              		.cfi_def_cfa 2, 32
  82 0040 83348100 		ld	s1,8(sp)
  83              		.cfi_restore 9
  84              	.LVL6:
  85 0044 13010102 		addi	sp,sp,32
  86              		.cfi_def_cfa_offset 0
  87 0048 67800000 		jr	ra
  88              		.cfi_endproc
  89              	.LFE62:
  91              		.section	.text._ZN7WorkerBD2Ev,"axG",@progbits,_ZN7WorkerBD5Ev,comdat
  92              		.align	2
  93              		.weak	_ZN7WorkerBD2Ev
  95              	_ZN7WorkerBD2Ev:
GAS LISTING /tmp/ccPIzBZ4.s 			page 3


  96              	.LFB56:
  20:src/../h/Threads_CPP_API_test.hpp ****     void workerBodyA(void* arg);
  21:src/../h/Threads_CPP_API_test.hpp **** public:
  22:src/../h/Threads_CPP_API_test.hpp ****     WorkerA():Thread() {}
  23:src/../h/Threads_CPP_API_test.hpp **** 
  24:src/../h/Threads_CPP_API_test.hpp ****     void run() override {
  25:src/../h/Threads_CPP_API_test.hpp ****         workerBodyA(nullptr);
  26:src/../h/Threads_CPP_API_test.hpp ****     }
  27:src/../h/Threads_CPP_API_test.hpp **** };
  28:src/../h/Threads_CPP_API_test.hpp **** 
  29:src/../h/Threads_CPP_API_test.hpp **** class WorkerB: public Thread {
  97              		.loc 1 29 7 is_stmt 1
  98              		.cfi_startproc
  99              	.LVL7:
 100 0000 130101FF 		addi	sp,sp,-16
 101              		.cfi_def_cfa_offset 16
 102 0004 23341100 		sd	ra,8(sp)
 103 0008 23308100 		sd	s0,0(sp)
 104              		.cfi_offset 1, -8
 105              		.cfi_offset 8, -16
 106 000c 13040101 		addi	s0,sp,16
 107              		.cfi_def_cfa 8, 0
 108              	.LBB59:
 109              		.loc 1 29 7 is_stmt 0
 110 0010 97070000 		lla	a5,_ZTV7WorkerB+16
 110      93870700 
 111 0018 2330F500 		sd	a5,0(a0)
 112 001c 97000000 		call	_ZN6ThreadD2Ev@plt
 112      E7800000 
 113              	.LVL8:
 114              	.LBE59:
 115 0024 83308100 		ld	ra,8(sp)
 116              		.cfi_restore 1
 117 0028 03340100 		ld	s0,0(sp)
 118              		.cfi_restore 8
 119              		.cfi_def_cfa 2, 16
 120 002c 13010101 		addi	sp,sp,16
 121              		.cfi_def_cfa_offset 0
 122 0030 67800000 		jr	ra
 123              		.cfi_endproc
 124              	.LFE56:
 126              		.weak	_ZN7WorkerBD1Ev
 127              		.set	_ZN7WorkerBD1Ev,_ZN7WorkerBD2Ev
 128              		.section	.text._ZN7WorkerBD0Ev,"axG",@progbits,_ZN7WorkerBD5Ev,comdat
 129              		.align	2
 130              		.weak	_ZN7WorkerBD0Ev
 132              	_ZN7WorkerBD0Ev:
 133              	.LFB58:
 134              		.loc 1 29 7 is_stmt 1
 135              		.cfi_startproc
 136              	.LVL9:
 137 0000 130101FE 		addi	sp,sp,-32
 138              		.cfi_def_cfa_offset 32
 139 0004 233C1100 		sd	ra,24(sp)
 140 0008 23388100 		sd	s0,16(sp)
 141 000c 23349100 		sd	s1,8(sp)
 142              		.cfi_offset 1, -8
GAS LISTING /tmp/ccPIzBZ4.s 			page 4


 143              		.cfi_offset 8, -16
 144              		.cfi_offset 9, -24
 145 0010 13040102 		addi	s0,sp,32
 146              		.cfi_def_cfa 8, 0
 147 0014 93040500 		mv	s1,a0
 148              	.LVL10:
 149              	.LBB60:
 150              	.LBB61:
 151              		.loc 1 29 7 is_stmt 0
 152 0018 97070000 		lla	a5,_ZTV7WorkerB+16
 152      93870700 
 153 0020 2330F500 		sd	a5,0(a0)
 154 0024 97000000 		call	_ZN6ThreadD2Ev@plt
 154      E7800000 
 155              	.LVL11:
 156              	.LBE61:
 157              	.LBE60:
 158 002c 13850400 		mv	a0,s1
 159 0030 97000000 		call	_ZdlPv@plt
 159      E7800000 
 160              	.LVL12:
 161 0038 83308101 		ld	ra,24(sp)
 162              		.cfi_restore 1
 163 003c 03340101 		ld	s0,16(sp)
 164              		.cfi_restore 8
 165              		.cfi_def_cfa 2, 32
 166 0040 83348100 		ld	s1,8(sp)
 167              		.cfi_restore 9
 168              	.LVL13:
 169 0044 13010102 		addi	sp,sp,32
 170              		.cfi_def_cfa_offset 0
 171 0048 67800000 		jr	ra
 172              		.cfi_endproc
 173              	.LFE58:
 175              		.section	.text._ZN7WorkerCD2Ev,"axG",@progbits,_ZN7WorkerCD5Ev,comdat
 176              		.align	2
 177              		.weak	_ZN7WorkerCD2Ev
 179              	_ZN7WorkerCD2Ev:
 180              	.LFB52:
  30:src/../h/Threads_CPP_API_test.hpp ****     void workerBodyB(void* arg);
  31:src/../h/Threads_CPP_API_test.hpp **** public:
  32:src/../h/Threads_CPP_API_test.hpp ****     WorkerB():Thread() {}
  33:src/../h/Threads_CPP_API_test.hpp **** 
  34:src/../h/Threads_CPP_API_test.hpp ****     void run() override {
  35:src/../h/Threads_CPP_API_test.hpp ****         workerBodyB(nullptr);
  36:src/../h/Threads_CPP_API_test.hpp ****     }
  37:src/../h/Threads_CPP_API_test.hpp **** };
  38:src/../h/Threads_CPP_API_test.hpp **** 
  39:src/../h/Threads_CPP_API_test.hpp **** class WorkerC: public Thread {
 181              		.loc 1 39 7 is_stmt 1
 182              		.cfi_startproc
 183              	.LVL14:
 184 0000 130101FF 		addi	sp,sp,-16
 185              		.cfi_def_cfa_offset 16
 186 0004 23341100 		sd	ra,8(sp)
 187 0008 23308100 		sd	s0,0(sp)
 188              		.cfi_offset 1, -8
GAS LISTING /tmp/ccPIzBZ4.s 			page 5


 189              		.cfi_offset 8, -16
 190 000c 13040101 		addi	s0,sp,16
 191              		.cfi_def_cfa 8, 0
 192              	.LBB62:
 193              		.loc 1 39 7 is_stmt 0
 194 0010 97070000 		lla	a5,_ZTV7WorkerC+16
 194      93870700 
 195 0018 2330F500 		sd	a5,0(a0)
 196 001c 97000000 		call	_ZN6ThreadD2Ev@plt
 196      E7800000 
 197              	.LVL15:
 198              	.LBE62:
 199 0024 83308100 		ld	ra,8(sp)
 200              		.cfi_restore 1
 201 0028 03340100 		ld	s0,0(sp)
 202              		.cfi_restore 8
 203              		.cfi_def_cfa 2, 16
 204 002c 13010101 		addi	sp,sp,16
 205              		.cfi_def_cfa_offset 0
 206 0030 67800000 		jr	ra
 207              		.cfi_endproc
 208              	.LFE52:
 210              		.weak	_ZN7WorkerCD1Ev
 211              		.set	_ZN7WorkerCD1Ev,_ZN7WorkerCD2Ev
 212              		.section	.text._ZN7WorkerCD0Ev,"axG",@progbits,_ZN7WorkerCD5Ev,comdat
 213              		.align	2
 214              		.weak	_ZN7WorkerCD0Ev
 216              	_ZN7WorkerCD0Ev:
 217              	.LFB54:
 218              		.loc 1 39 7 is_stmt 1
 219              		.cfi_startproc
 220              	.LVL16:
 221 0000 130101FE 		addi	sp,sp,-32
 222              		.cfi_def_cfa_offset 32
 223 0004 233C1100 		sd	ra,24(sp)
 224 0008 23388100 		sd	s0,16(sp)
 225 000c 23349100 		sd	s1,8(sp)
 226              		.cfi_offset 1, -8
 227              		.cfi_offset 8, -16
 228              		.cfi_offset 9, -24
 229 0010 13040102 		addi	s0,sp,32
 230              		.cfi_def_cfa 8, 0
 231 0014 93040500 		mv	s1,a0
 232              	.LVL17:
 233              	.LBB63:
 234              	.LBB64:
 235              		.loc 1 39 7 is_stmt 0
 236 0018 97070000 		lla	a5,_ZTV7WorkerC+16
 236      93870700 
 237 0020 2330F500 		sd	a5,0(a0)
 238 0024 97000000 		call	_ZN6ThreadD2Ev@plt
 238      E7800000 
 239              	.LVL18:
 240              	.LBE64:
 241              	.LBE63:
 242 002c 13850400 		mv	a0,s1
 243 0030 97000000 		call	_ZdlPv@plt
GAS LISTING /tmp/ccPIzBZ4.s 			page 6


 243      E7800000 
 244              	.LVL19:
 245 0038 83308101 		ld	ra,24(sp)
 246              		.cfi_restore 1
 247 003c 03340101 		ld	s0,16(sp)
 248              		.cfi_restore 8
 249              		.cfi_def_cfa 2, 32
 250 0040 83348100 		ld	s1,8(sp)
 251              		.cfi_restore 9
 252              	.LVL20:
 253 0044 13010102 		addi	sp,sp,32
 254              		.cfi_def_cfa_offset 0
 255 0048 67800000 		jr	ra
 256              		.cfi_endproc
 257              	.LFE54:
 259              		.section	.text._ZN7WorkerDD2Ev,"axG",@progbits,_ZN7WorkerDD5Ev,comdat
 260              		.align	2
 261              		.weak	_ZN7WorkerDD2Ev
 263              	_ZN7WorkerDD2Ev:
 264              	.LFB48:
  40:src/../h/Threads_CPP_API_test.hpp ****     void workerBodyC(void* arg);
  41:src/../h/Threads_CPP_API_test.hpp **** public:
  42:src/../h/Threads_CPP_API_test.hpp ****     WorkerC():Thread() {}
  43:src/../h/Threads_CPP_API_test.hpp **** 
  44:src/../h/Threads_CPP_API_test.hpp ****     void run() override {
  45:src/../h/Threads_CPP_API_test.hpp ****         workerBodyC(nullptr);
  46:src/../h/Threads_CPP_API_test.hpp ****     }
  47:src/../h/Threads_CPP_API_test.hpp **** };
  48:src/../h/Threads_CPP_API_test.hpp **** 
  49:src/../h/Threads_CPP_API_test.hpp **** class WorkerD: public Thread {
 265              		.loc 1 49 7 is_stmt 1
 266              		.cfi_startproc
 267              	.LVL21:
 268 0000 130101FF 		addi	sp,sp,-16
 269              		.cfi_def_cfa_offset 16
 270 0004 23341100 		sd	ra,8(sp)
 271 0008 23308100 		sd	s0,0(sp)
 272              		.cfi_offset 1, -8
 273              		.cfi_offset 8, -16
 274 000c 13040101 		addi	s0,sp,16
 275              		.cfi_def_cfa 8, 0
 276              	.LBB65:
 277              		.loc 1 49 7 is_stmt 0
 278 0010 97070000 		lla	a5,_ZTV7WorkerD+16
 278      93870700 
 279 0018 2330F500 		sd	a5,0(a0)
 280 001c 97000000 		call	_ZN6ThreadD2Ev@plt
 280      E7800000 
 281              	.LVL22:
 282              	.LBE65:
 283 0024 83308100 		ld	ra,8(sp)
 284              		.cfi_restore 1
 285 0028 03340100 		ld	s0,0(sp)
 286              		.cfi_restore 8
 287              		.cfi_def_cfa 2, 16
 288 002c 13010101 		addi	sp,sp,16
 289              		.cfi_def_cfa_offset 0
GAS LISTING /tmp/ccPIzBZ4.s 			page 7


 290 0030 67800000 		jr	ra
 291              		.cfi_endproc
 292              	.LFE48:
 294              		.weak	_ZN7WorkerDD1Ev
 295              		.set	_ZN7WorkerDD1Ev,_ZN7WorkerDD2Ev
 296              		.section	.text._ZN7WorkerDD0Ev,"axG",@progbits,_ZN7WorkerDD5Ev,comdat
 297              		.align	2
 298              		.weak	_ZN7WorkerDD0Ev
 300              	_ZN7WorkerDD0Ev:
 301              	.LFB50:
 302              		.loc 1 49 7 is_stmt 1
 303              		.cfi_startproc
 304              	.LVL23:
 305 0000 130101FE 		addi	sp,sp,-32
 306              		.cfi_def_cfa_offset 32
 307 0004 233C1100 		sd	ra,24(sp)
 308 0008 23388100 		sd	s0,16(sp)
 309 000c 23349100 		sd	s1,8(sp)
 310              		.cfi_offset 1, -8
 311              		.cfi_offset 8, -16
 312              		.cfi_offset 9, -24
 313 0010 13040102 		addi	s0,sp,32
 314              		.cfi_def_cfa 8, 0
 315 0014 93040500 		mv	s1,a0
 316              	.LVL24:
 317              	.LBB66:
 318              	.LBB67:
 319              		.loc 1 49 7 is_stmt 0
 320 0018 97070000 		lla	a5,_ZTV7WorkerD+16
 320      93870700 
 321 0020 2330F500 		sd	a5,0(a0)
 322 0024 97000000 		call	_ZN6ThreadD2Ev@plt
 322      E7800000 
 323              	.LVL25:
 324              	.LBE67:
 325              	.LBE66:
 326 002c 13850400 		mv	a0,s1
 327 0030 97000000 		call	_ZdlPv@plt
 327      E7800000 
 328              	.LVL26:
 329 0038 83308101 		ld	ra,24(sp)
 330              		.cfi_restore 1
 331 003c 03340101 		ld	s0,16(sp)
 332              		.cfi_restore 8
 333              		.cfi_def_cfa 2, 32
 334 0040 83348100 		ld	s1,8(sp)
 335              		.cfi_restore 9
 336              	.LVL27:
 337 0044 13010102 		addi	sp,sp,32
 338              		.cfi_def_cfa_offset 0
 339 0048 67800000 		jr	ra
 340              		.cfi_endproc
 341              	.LFE50:
 343              		.text
 344              		.align	2
 345              		.globl	_Z9fibonaccim
 347              	_Z9fibonaccim:
GAS LISTING /tmp/ccPIzBZ4.s 			page 8


 348              	.LFB24:
  13:src/../h/Threads_CPP_API_test.hpp ****     if (n == 0 || n == 1) { return n; }
 349              		.loc 1 13 28 is_stmt 1
 350              		.cfi_startproc
 351              	.LVL28:
 352 0000 130101FE 		addi	sp,sp,-32
 353              		.cfi_def_cfa_offset 32
 354 0004 233C1100 		sd	ra,24(sp)
 355 0008 23388100 		sd	s0,16(sp)
 356 000c 23349100 		sd	s1,8(sp)
 357 0010 23302101 		sd	s2,0(sp)
 358              		.cfi_offset 1, -8
 359              		.cfi_offset 8, -16
 360              		.cfi_offset 9, -24
 361              		.cfi_offset 18, -32
 362 0014 13040102 		addi	s0,sp,32
 363              		.cfi_def_cfa 8, 0
 364 0018 93040500 		mv	s1,a0
  14:src/../h/Threads_CPP_API_test.hpp ****     if (n % 10 == 0) { thread_dispatch(); }
 365              		.loc 1 14 5
 366 001c 93071000 		li	a5,1
 367 0020 63F8A702 		bleu	a0,a5,.L17
  15:src/../h/Threads_CPP_API_test.hpp ****     return fibonacci(n - 1) + fibonacci(n - 2);
 368              		.loc 1 15 5
  15:src/../h/Threads_CPP_API_test.hpp ****     return fibonacci(n - 1) + fibonacci(n - 2);
 369              		.loc 1 15 11 is_stmt 0
 370 0024 9307A000 		li	a5,10
 371 0028 B377F502 		remu	a5,a0,a5
  15:src/../h/Threads_CPP_API_test.hpp ****     return fibonacci(n - 1) + fibonacci(n - 2);
 372              		.loc 1 15 5
 373 002c 638E0702 		beqz	a5,.L22
 374              	.LVL29:
 375              	.L19:
  16:src/../h/Threads_CPP_API_test.hpp **** }
 376              		.loc 1 16 5 is_stmt 1
  16:src/../h/Threads_CPP_API_test.hpp **** }
 377              		.loc 1 16 21 is_stmt 0
 378 0030 1385F4FF 		addi	a0,s1,-1
 379 0034 97000000 		call	_Z9fibonaccim
 379      E7800000 
 380              	.LVL30:
 381 003c 13090500 		mv	s2,a0
  16:src/../h/Threads_CPP_API_test.hpp **** }
 382              		.loc 1 16 40
 383 0040 1385E4FF 		addi	a0,s1,-2
 384 0044 97000000 		call	_Z9fibonaccim
 384      E7800000 
 385              	.LVL31:
  16:src/../h/Threads_CPP_API_test.hpp **** }
 386              		.loc 1 16 46
 387 004c 3305A900 		add	a0,s2,a0
 388              	.L17:
  17:src/../h/Threads_CPP_API_test.hpp **** 
 389              		.loc 1 17 1
 390 0050 83308101 		ld	ra,24(sp)
 391              		.cfi_remember_state
 392              		.cfi_restore 1
GAS LISTING /tmp/ccPIzBZ4.s 			page 9


 393 0054 03340101 		ld	s0,16(sp)
 394              		.cfi_restore 8
 395              		.cfi_def_cfa 2, 32
 396 0058 83348100 		ld	s1,8(sp)
 397              		.cfi_restore 9
 398              	.LVL32:
 399 005c 03390100 		ld	s2,0(sp)
 400              		.cfi_restore 18
 401 0060 13010102 		addi	sp,sp,32
 402              		.cfi_def_cfa_offset 0
 403 0064 67800000 		jr	ra
 404              	.LVL33:
 405              	.L22:
 406              		.cfi_restore_state
  15:src/../h/Threads_CPP_API_test.hpp ****     return fibonacci(n - 1) + fibonacci(n - 2);
 407              		.loc 1 15 24 is_stmt 1 discriminator 1
  15:src/../h/Threads_CPP_API_test.hpp ****     return fibonacci(n - 1) + fibonacci(n - 2);
 408              		.loc 1 15 39 is_stmt 0 discriminator 1
 409 0068 97000000 		call	thread_dispatch@plt
 409      E7800000 
 410              	.LVL34:
 411 0070 6FF01FFC 		j	.L19
 412              		.cfi_endproc
 413              	.LFE24:
 415              		.section	.rodata.str1.8,"aMS",@progbits,1
 416              		.align	3
 417              	.LC0:
 418 0000 413A2069 		.string	"A: i="
 418      3D00
 419 0006 0000     		.align	3
 420              	.LC1:
 421 0008 0A00     		.string	"\n"
 422 000a 00000000 		.align	3
 422      0000
 423              	.LC2:
 424 0010 41206669 		.string	"A finished!\n"
 424      6E697368 
 424      6564210A 
 424      00
 425              		.text
 426              		.align	2
 427              		.globl	_ZN7WorkerA11workerBodyAEPv
 429              	_ZN7WorkerA11workerBodyAEPv:
 430              	.LFB41:
  50:src/../h/Threads_CPP_API_test.hpp ****     void workerBodyD(void* arg);
  51:src/../h/Threads_CPP_API_test.hpp **** public:
  52:src/../h/Threads_CPP_API_test.hpp ****     WorkerD():Thread() {}
  53:src/../h/Threads_CPP_API_test.hpp **** 
  54:src/../h/Threads_CPP_API_test.hpp ****     void run() override {
  55:src/../h/Threads_CPP_API_test.hpp ****         workerBodyD(nullptr);
  56:src/../h/Threads_CPP_API_test.hpp ****     }
  57:src/../h/Threads_CPP_API_test.hpp **** };
  58:src/../h/Threads_CPP_API_test.hpp **** 
  59:src/../h/Threads_CPP_API_test.hpp **** void WorkerA::workerBodyA(void *arg) {
 431              		.loc 1 59 38 is_stmt 1
 432              		.cfi_startproc
 433              	.LVL35:
GAS LISTING /tmp/ccPIzBZ4.s 			page 10


 434 0074 130101FE 		addi	sp,sp,-32
 435              		.cfi_def_cfa_offset 32
 436 0078 233C1100 		sd	ra,24(sp)
 437 007c 23388100 		sd	s0,16(sp)
 438 0080 23349100 		sd	s1,8(sp)
 439 0084 23302101 		sd	s2,0(sp)
 440              		.cfi_offset 1, -8
 441              		.cfi_offset 8, -16
 442              		.cfi_offset 9, -24
 443              		.cfi_offset 18, -32
 444 0088 13040102 		addi	s0,sp,32
 445              		.cfi_def_cfa 8, 0
  60:src/../h/Threads_CPP_API_test.hpp ****     threads[2]->join();
 446              		.loc 1 60 5
 447              		.loc 1 60 21 is_stmt 0
 448 008c 17050000 		ld	a0,.LANCHOR0+16
 448      03350500 
 449              	.LVL36:
 450 0094 97000000 		call	_ZN6Thread4joinEv@plt
 450      E7800000 
 451              	.LVL37:
  61:src/../h/Threads_CPP_API_test.hpp ****     for (uint64 i = 0; i < 10; i++) {
 452              		.loc 1 61 5 is_stmt 1
 453              	.LBB68:
 454              		.loc 1 61 17 is_stmt 0
 455 009c 13090000 		li	s2,0
 456 00a0 6F008003 		j	.L29
 457              	.LVL38:
 458              	.L26:
 459              	.LBB69:
 460              	.LBB70:
 461              	.LBB71:
  62:src/../h/Threads_CPP_API_test.hpp ****         printString("A: i="); printInt(i); printString("\n");
  63:src/../h/Threads_CPP_API_test.hpp ****         for (uint64 j = 0; j < 10000; j++) {
  64:src/../h/Threads_CPP_API_test.hpp ****             for (uint64 k = 0; k < 30000; k++) { /* busy wait */ }
  65:src/../h/Threads_CPP_API_test.hpp ****             thread_dispatch();
 462              		.loc 1 65 13 is_stmt 1 discriminator 2
 463              		.loc 1 65 28 is_stmt 0 discriminator 2
 464 00a4 97000000 		call	thread_dispatch@plt
 464      E7800000 
 465              	.LVL39:
 466              	.LBE71:
  63:src/../h/Threads_CPP_API_test.hpp ****             for (uint64 k = 0; k < 30000; k++) { /* busy wait */ }
 467              		.loc 1 63 9 is_stmt 1 discriminator 2
 468 00ac 93841400 		addi	s1,s1,1
 469              	.LVL40:
 470              	.L28:
  63:src/../h/Threads_CPP_API_test.hpp ****             for (uint64 k = 0; k < 30000; k++) { /* busy wait */ }
 471              		.loc 1 63 30 discriminator 1
 472 00b0 B7270000 		li	a5,8192
 473 00b4 9387F770 		addi	a5,a5,1807
 474 00b8 63EE9700 		bgtu	s1,a5,.L25
 475              	.LBB73:
 476              	.LBB72:
  64:src/../h/Threads_CPP_API_test.hpp ****             thread_dispatch();
 477              		.loc 1 64 25 is_stmt 0
 478 00bc 13070000 		li	a4,0
GAS LISTING /tmp/ccPIzBZ4.s 			page 11


 479              	.L27:
 480              	.LVL41:
  64:src/../h/Threads_CPP_API_test.hpp ****             thread_dispatch();
 481              		.loc 1 64 34 is_stmt 1 discriminator 3
 482 00c0 B7770000 		li	a5,28672
 483 00c4 9387F752 		addi	a5,a5,1327
 484 00c8 E3EEE7FC 		bgtu	a4,a5,.L26
  64:src/../h/Threads_CPP_API_test.hpp ****             thread_dispatch();
 485              		.loc 1 64 13 discriminator 2
 486 00cc 13071700 		addi	a4,a4,1
 487              	.LVL42:
 488 00d0 6FF01FFF 		j	.L27
 489              	.LVL43:
 490              	.L25:
 491              	.LBE72:
 492              	.LBE73:
 493              	.LBE70:
 494              	.LBE69:
  61:src/../h/Threads_CPP_API_test.hpp ****         printString("A: i="); printInt(i); printString("\n");
 495              		.loc 1 61 5 discriminator 2
 496 00d4 13091900 		addi	s2,s2,1
 497              	.LVL44:
 498              	.L29:
  61:src/../h/Threads_CPP_API_test.hpp ****         printString("A: i="); printInt(i); printString("\n");
 499              		.loc 1 61 26 discriminator 1
 500 00d8 93079000 		li	a5,9
 501 00dc 63E02705 		bgtu	s2,a5,.L24
 502              	.LBB75:
  62:src/../h/Threads_CPP_API_test.hpp ****         for (uint64 j = 0; j < 10000; j++) {
 503              		.loc 1 62 9
  62:src/../h/Threads_CPP_API_test.hpp ****         for (uint64 j = 0; j < 10000; j++) {
 504              		.loc 1 62 20 is_stmt 0
 505 00e0 17050000 		lla	a0,.LC0
 505      13050500 
 506 00e8 97000000 		call	_Z11printStringPKc@plt
 506      E7800000 
 507              	.LVL45:
  62:src/../h/Threads_CPP_API_test.hpp ****         for (uint64 j = 0; j < 10000; j++) {
 508              		.loc 1 62 31 is_stmt 1
  62:src/../h/Threads_CPP_API_test.hpp ****         for (uint64 j = 0; j < 10000; j++) {
 509              		.loc 1 62 39 is_stmt 0
 510 00f0 13060000 		li	a2,0
 511 00f4 9305A000 		li	a1,10
 512 00f8 1B050900 		sext.w	a0,s2
 513 00fc 97000000 		call	_Z8printIntiii@plt
 513      E7800000 
 514              	.LVL46:
  62:src/../h/Threads_CPP_API_test.hpp ****         for (uint64 j = 0; j < 10000; j++) {
 515              		.loc 1 62 44 is_stmt 1
  62:src/../h/Threads_CPP_API_test.hpp ****         for (uint64 j = 0; j < 10000; j++) {
 516              		.loc 1 62 55 is_stmt 0
 517 0104 17050000 		lla	a0,.LC1
 517      13050500 
 518 010c 97000000 		call	_Z11printStringPKc@plt
 518      E7800000 
 519              	.LVL47:
  63:src/../h/Threads_CPP_API_test.hpp ****             for (uint64 k = 0; k < 30000; k++) { /* busy wait */ }
GAS LISTING /tmp/ccPIzBZ4.s 			page 12


 520              		.loc 1 63 9 is_stmt 1
 521              	.LBB74:
  63:src/../h/Threads_CPP_API_test.hpp ****             for (uint64 k = 0; k < 30000; k++) { /* busy wait */ }
 522              		.loc 1 63 21 is_stmt 0
 523 0114 93040000 		li	s1,0
 524 0118 6FF09FF9 		j	.L28
 525              	.LVL48:
 526              	.L24:
 527              	.LBE74:
 528              	.LBE75:
 529              	.LBE68:
  66:src/../h/Threads_CPP_API_test.hpp ****         }
  67:src/../h/Threads_CPP_API_test.hpp ****     }
  68:src/../h/Threads_CPP_API_test.hpp **** 
  69:src/../h/Threads_CPP_API_test.hpp ****     printString("A finished!\n");
 530              		.loc 1 69 5 is_stmt 1
 531              		.loc 1 69 16 is_stmt 0
 532 011c 17050000 		lla	a0,.LC2
 532      13050500 
 533 0124 97000000 		call	_Z11printStringPKc@plt
 533      E7800000 
 534              	.LVL49:
  70:src/../h/Threads_CPP_API_test.hpp ****     finishedA = true;
 535              		.loc 1 70 5 is_stmt 1
 536              		.loc 1 70 15 is_stmt 0
 537 012c 93071000 		li	a5,1
 538 0130 17070000 		sb	a5,.LANCHOR0+32,a4
 538      2300F700 
  71:src/../h/Threads_CPP_API_test.hpp **** }
 539              		.loc 1 71 1
 540 0138 83308101 		ld	ra,24(sp)
 541              		.cfi_restore 1
 542 013c 03340101 		ld	s0,16(sp)
 543              		.cfi_restore 8
 544              		.cfi_def_cfa 2, 32
 545 0140 83348100 		ld	s1,8(sp)
 546              		.cfi_restore 9
 547 0144 03390100 		ld	s2,0(sp)
 548              		.cfi_restore 18
 549              	.LVL50:
 550 0148 13010102 		addi	sp,sp,32
 551              		.cfi_def_cfa_offset 0
 552 014c 67800000 		jr	ra
 553              		.cfi_endproc
 554              	.LFE41:
 556              		.section	.text._ZN7WorkerA3runEv,"axG",@progbits,_ZN7WorkerA3runEv,comdat
 557              		.align	2
 558              		.weak	_ZN7WorkerA3runEv
 560              	_ZN7WorkerA3runEv:
 561              	.LFB28:
  24:src/../h/Threads_CPP_API_test.hpp ****         workerBodyA(nullptr);
 562              		.loc 1 24 10 is_stmt 1
 563              		.cfi_startproc
 564              	.LVL51:
 565 0000 130101FF 		addi	sp,sp,-16
 566              		.cfi_def_cfa_offset 16
 567 0004 23341100 		sd	ra,8(sp)
GAS LISTING /tmp/ccPIzBZ4.s 			page 13


 568 0008 23308100 		sd	s0,0(sp)
 569              		.cfi_offset 1, -8
 570              		.cfi_offset 8, -16
 571 000c 13040101 		addi	s0,sp,16
 572              		.cfi_def_cfa 8, 0
  25:src/../h/Threads_CPP_API_test.hpp ****     }
 573              		.loc 1 25 9
  25:src/../h/Threads_CPP_API_test.hpp ****     }
 574              		.loc 1 25 20 is_stmt 0
 575 0010 93050000 		li	a1,0
 576 0014 97000000 		call	_ZN7WorkerA11workerBodyAEPv
 576      E7800000 
 577              	.LVL52:
  26:src/../h/Threads_CPP_API_test.hpp **** };
 578              		.loc 1 26 5
 579 001c 83308100 		ld	ra,8(sp)
 580              		.cfi_restore 1
 581 0020 03340100 		ld	s0,0(sp)
 582              		.cfi_restore 8
 583              		.cfi_def_cfa 2, 16
 584 0024 13010101 		addi	sp,sp,16
 585              		.cfi_def_cfa_offset 0
 586 0028 67800000 		jr	ra
 587              		.cfi_endproc
 588              	.LFE28:
 590              		.section	.rodata.str1.8
 591 001d 000000   		.align	3
 592              	.LC3:
 593 0020 423A2069 		.string	"B: i="
 593      3D00
 594 0026 0000     		.align	3
 595              	.LC4:
 596 0028 42206669 		.string	"B finished!\n"
 596      6E697368 
 596      6564210A 
 596      00
 597              		.text
 598              		.align	2
 599              		.globl	_ZN7WorkerB11workerBodyBEPv
 601              	_ZN7WorkerB11workerBodyBEPv:
 602              	.LFB42:
  72:src/../h/Threads_CPP_API_test.hpp **** 
  73:src/../h/Threads_CPP_API_test.hpp **** void WorkerB::workerBodyB(void *arg) {
 603              		.loc 1 73 38 is_stmt 1
 604              		.cfi_startproc
 605              	.LVL53:
 606 0150 130101FE 		addi	sp,sp,-32
 607              		.cfi_def_cfa_offset 32
 608 0154 233C1100 		sd	ra,24(sp)
 609 0158 23388100 		sd	s0,16(sp)
 610 015c 23349100 		sd	s1,8(sp)
 611 0160 23302101 		sd	s2,0(sp)
 612              		.cfi_offset 1, -8
 613              		.cfi_offset 8, -16
 614              		.cfi_offset 9, -24
 615              		.cfi_offset 18, -32
 616 0164 13040102 		addi	s0,sp,32
GAS LISTING /tmp/ccPIzBZ4.s 			page 14


 617              		.cfi_def_cfa 8, 0
  74:src/../h/Threads_CPP_API_test.hpp ****     threads[0]->join();
 618              		.loc 1 74 5
 619              		.loc 1 74 21 is_stmt 0
 620 0168 17050000 		ld	a0,.LANCHOR0
 620      03350500 
 621              	.LVL54:
 622 0170 97000000 		call	_ZN6Thread4joinEv@plt
 622      E7800000 
 623              	.LVL55:
  75:src/../h/Threads_CPP_API_test.hpp ****     for (uint64 i = 0; i < 16; i++) {
 624              		.loc 1 75 5 is_stmt 1
 625              	.LBB76:
 626              		.loc 1 75 17 is_stmt 0
 627 0178 13090000 		li	s2,0
 628 017c 6F008003 		j	.L39
 629              	.LVL56:
 630              	.L36:
 631              	.LBB77:
 632              	.LBB78:
 633              	.LBB79:
  76:src/../h/Threads_CPP_API_test.hpp ****         printString("B: i="); printInt(i); printString("\n");
  77:src/../h/Threads_CPP_API_test.hpp ****         for (uint64 j = 0; j < 10000; j++) {
  78:src/../h/Threads_CPP_API_test.hpp ****             for (uint64 k = 0; k < 30000; k++) { /* busy wait */ }
  79:src/../h/Threads_CPP_API_test.hpp ****             thread_dispatch();
 634              		.loc 1 79 13 is_stmt 1 discriminator 2
 635              		.loc 1 79 28 is_stmt 0 discriminator 2
 636 0180 97000000 		call	thread_dispatch@plt
 636      E7800000 
 637              	.LVL57:
 638              	.LBE79:
  77:src/../h/Threads_CPP_API_test.hpp ****             for (uint64 k = 0; k < 30000; k++) { /* busy wait */ }
 639              		.loc 1 77 9 is_stmt 1 discriminator 2
 640 0188 93841400 		addi	s1,s1,1
 641              	.LVL58:
 642              	.L38:
  77:src/../h/Threads_CPP_API_test.hpp ****             for (uint64 k = 0; k < 30000; k++) { /* busy wait */ }
 643              		.loc 1 77 30 discriminator 1
 644 018c B7270000 		li	a5,8192
 645 0190 9387F770 		addi	a5,a5,1807
 646 0194 63EE9700 		bgtu	s1,a5,.L35
 647              	.LBB81:
 648              	.LBB80:
  78:src/../h/Threads_CPP_API_test.hpp ****             thread_dispatch();
 649              		.loc 1 78 25 is_stmt 0
 650 0198 13070000 		li	a4,0
 651              	.L37:
 652              	.LVL59:
  78:src/../h/Threads_CPP_API_test.hpp ****             thread_dispatch();
 653              		.loc 1 78 34 is_stmt 1 discriminator 3
 654 019c B7770000 		li	a5,28672
 655 01a0 9387F752 		addi	a5,a5,1327
 656 01a4 E3EEE7FC 		bgtu	a4,a5,.L36
  78:src/../h/Threads_CPP_API_test.hpp ****             thread_dispatch();
 657              		.loc 1 78 13 discriminator 2
 658 01a8 13071700 		addi	a4,a4,1
 659              	.LVL60:
GAS LISTING /tmp/ccPIzBZ4.s 			page 15


 660 01ac 6FF01FFF 		j	.L37
 661              	.LVL61:
 662              	.L35:
 663              	.LBE80:
 664              	.LBE81:
 665              	.LBE78:
 666              	.LBE77:
  75:src/../h/Threads_CPP_API_test.hpp ****         printString("B: i="); printInt(i); printString("\n");
 667              		.loc 1 75 5 discriminator 2
 668 01b0 13091900 		addi	s2,s2,1
 669              	.LVL62:
 670              	.L39:
  75:src/../h/Threads_CPP_API_test.hpp ****         printString("B: i="); printInt(i); printString("\n");
 671              		.loc 1 75 26 discriminator 1
 672 01b4 9307F000 		li	a5,15
 673 01b8 63E02705 		bgtu	s2,a5,.L34
 674              	.LBB83:
  76:src/../h/Threads_CPP_API_test.hpp ****         for (uint64 j = 0; j < 10000; j++) {
 675              		.loc 1 76 9
  76:src/../h/Threads_CPP_API_test.hpp ****         for (uint64 j = 0; j < 10000; j++) {
 676              		.loc 1 76 20 is_stmt 0
 677 01bc 17050000 		lla	a0,.LC3
 677      13050500 
 678 01c4 97000000 		call	_Z11printStringPKc@plt
 678      E7800000 
 679              	.LVL63:
  76:src/../h/Threads_CPP_API_test.hpp ****         for (uint64 j = 0; j < 10000; j++) {
 680              		.loc 1 76 31 is_stmt 1
  76:src/../h/Threads_CPP_API_test.hpp ****         for (uint64 j = 0; j < 10000; j++) {
 681              		.loc 1 76 39 is_stmt 0
 682 01cc 13060000 		li	a2,0
 683 01d0 9305A000 		li	a1,10
 684 01d4 1B050900 		sext.w	a0,s2
 685 01d8 97000000 		call	_Z8printIntiii@plt
 685      E7800000 
 686              	.LVL64:
  76:src/../h/Threads_CPP_API_test.hpp ****         for (uint64 j = 0; j < 10000; j++) {
 687              		.loc 1 76 44 is_stmt 1
  76:src/../h/Threads_CPP_API_test.hpp ****         for (uint64 j = 0; j < 10000; j++) {
 688              		.loc 1 76 55 is_stmt 0
 689 01e0 17050000 		lla	a0,.LC1
 689      13050500 
 690 01e8 97000000 		call	_Z11printStringPKc@plt
 690      E7800000 
 691              	.LVL65:
  77:src/../h/Threads_CPP_API_test.hpp ****             for (uint64 k = 0; k < 30000; k++) { /* busy wait */ }
 692              		.loc 1 77 9 is_stmt 1
 693              	.LBB82:
  77:src/../h/Threads_CPP_API_test.hpp ****             for (uint64 k = 0; k < 30000; k++) { /* busy wait */ }
 694              		.loc 1 77 21 is_stmt 0
 695 01f0 93040000 		li	s1,0
 696 01f4 6FF09FF9 		j	.L38
 697              	.LVL66:
 698              	.L34:
 699              	.LBE82:
 700              	.LBE83:
 701              	.LBE76:
GAS LISTING /tmp/ccPIzBZ4.s 			page 16


  80:src/../h/Threads_CPP_API_test.hpp ****         }
  81:src/../h/Threads_CPP_API_test.hpp ****     }
  82:src/../h/Threads_CPP_API_test.hpp ****     printString("B finished!\n");
 702              		.loc 1 82 5 is_stmt 1
 703              		.loc 1 82 16 is_stmt 0
 704 01f8 17050000 		lla	a0,.LC4
 704      13050500 
 705 0200 97000000 		call	_Z11printStringPKc@plt
 705      E7800000 
 706              	.LVL67:
  83:src/../h/Threads_CPP_API_test.hpp ****     finishedB = true;
 707              		.loc 1 83 5 is_stmt 1
 708              		.loc 1 83 15 is_stmt 0
 709 0208 93071000 		li	a5,1
 710 020c 17070000 		sb	a5,.LANCHOR0+33,a4
 710      2300F700 
  84:src/../h/Threads_CPP_API_test.hpp ****     thread_dispatch();
 711              		.loc 1 84 5 is_stmt 1
 712              		.loc 1 84 20 is_stmt 0
 713 0214 97000000 		call	thread_dispatch@plt
 713      E7800000 
 714              	.LVL68:
  85:src/../h/Threads_CPP_API_test.hpp **** }
 715              		.loc 1 85 1
 716 021c 83308101 		ld	ra,24(sp)
 717              		.cfi_restore 1
 718 0220 03340101 		ld	s0,16(sp)
 719              		.cfi_restore 8
 720              		.cfi_def_cfa 2, 32
 721 0224 83348100 		ld	s1,8(sp)
 722              		.cfi_restore 9
 723 0228 03390100 		ld	s2,0(sp)
 724              		.cfi_restore 18
 725              	.LVL69:
 726 022c 13010102 		addi	sp,sp,32
 727              		.cfi_def_cfa_offset 0
 728 0230 67800000 		jr	ra
 729              		.cfi_endproc
 730              	.LFE42:
 732              		.section	.text._ZN7WorkerB3runEv,"axG",@progbits,_ZN7WorkerB3runEv,comdat
 733              		.align	2
 734              		.weak	_ZN7WorkerB3runEv
 736              	_ZN7WorkerB3runEv:
 737              	.LFB32:
  34:src/../h/Threads_CPP_API_test.hpp ****         workerBodyB(nullptr);
 738              		.loc 1 34 10 is_stmt 1
 739              		.cfi_startproc
 740              	.LVL70:
 741 0000 130101FF 		addi	sp,sp,-16
 742              		.cfi_def_cfa_offset 16
 743 0004 23341100 		sd	ra,8(sp)
 744 0008 23308100 		sd	s0,0(sp)
 745              		.cfi_offset 1, -8
 746              		.cfi_offset 8, -16
 747 000c 13040101 		addi	s0,sp,16
 748              		.cfi_def_cfa 8, 0
  35:src/../h/Threads_CPP_API_test.hpp ****     }
GAS LISTING /tmp/ccPIzBZ4.s 			page 17


 749              		.loc 1 35 9
  35:src/../h/Threads_CPP_API_test.hpp ****     }
 750              		.loc 1 35 20 is_stmt 0
 751 0010 93050000 		li	a1,0
 752 0014 97000000 		call	_ZN7WorkerB11workerBodyBEPv
 752      E7800000 
 753              	.LVL71:
  36:src/../h/Threads_CPP_API_test.hpp **** };
 754              		.loc 1 36 5
 755 001c 83308100 		ld	ra,8(sp)
 756              		.cfi_restore 1
 757 0020 03340100 		ld	s0,0(sp)
 758              		.cfi_restore 8
 759              		.cfi_def_cfa 2, 16
 760 0024 13010101 		addi	sp,sp,16
 761              		.cfi_def_cfa_offset 0
 762 0028 67800000 		jr	ra
 763              		.cfi_endproc
 764              	.LFE32:
 766              		.section	.rodata.str1.8
 767 0035 000000   		.align	3
 768              	.LC5:
 769 0038 433A2069 		.string	"C: i="
 769      3D00
 770 003e 0000     		.align	3
 771              	.LC6:
 772 0040 433A2064 		.string	"C: dispatch\n"
 772      69737061 
 772      7463680A 
 772      00
 773 004d 000000   		.align	3
 774              	.LC7:
 775 0050 433A2074 		.string	"C: t1="
 775      313D00
 776 0057 00       		.align	3
 777              	.LC8:
 778 0058 433A2066 		.string	"C: fibonaci="
 778      69626F6E 
 778      6163693D 
 778      00
 779 0065 000000   		.align	3
 780              	.LC9:
 781 0068 43206669 		.string	"C finished!\n"
 781      6E697368 
 781      6564210A 
 781      00
 782              		.text
 783              		.align	2
 784              		.globl	_ZN7WorkerC11workerBodyCEPv
 786              	_ZN7WorkerC11workerBodyCEPv:
 787              	.LFB43:
  86:src/../h/Threads_CPP_API_test.hpp **** 
  87:src/../h/Threads_CPP_API_test.hpp **** void WorkerC::workerBodyC(void *arg) {
 788              		.loc 1 87 38 is_stmt 1
 789              		.cfi_startproc
 790              	.LVL72:
 791 0234 130101FE 		addi	sp,sp,-32
GAS LISTING /tmp/ccPIzBZ4.s 			page 18


 792              		.cfi_def_cfa_offset 32
 793 0238 233C1100 		sd	ra,24(sp)
 794 023c 23388100 		sd	s0,16(sp)
 795 0240 23349100 		sd	s1,8(sp)
 796 0244 23302101 		sd	s2,0(sp)
 797              		.cfi_offset 1, -8
 798              		.cfi_offset 8, -16
 799              		.cfi_offset 9, -24
 800              		.cfi_offset 18, -32
 801 0248 13040102 		addi	s0,sp,32
 802              		.cfi_def_cfa 8, 0
  88:src/../h/Threads_CPP_API_test.hpp ****     uint8 i = 0;
 803              		.loc 1 88 5
 804              	.LVL73:
 805              		.loc 1 88 11 is_stmt 0
 806 024c 93040000 		li	s1,0
 807 0250 6F000004 		j	.L45
 808              	.LVL74:
 809              	.L49:
  89:src/../h/Threads_CPP_API_test.hpp ****     for (; i < 3; i++) {
  90:src/../h/Threads_CPP_API_test.hpp ****         printString("C: i="); printInt(i); printString("\n");
 810              		.loc 1 90 9 is_stmt 1 discriminator 1
 811              		.loc 1 90 20 is_stmt 0 discriminator 1
 812 0254 17050000 		lla	a0,.LC5
 812      13050500 
 813 025c 97000000 		call	_Z11printStringPKc@plt
 813      E7800000 
 814              	.LVL75:
 815              		.loc 1 90 31 is_stmt 1 discriminator 1
 816              		.loc 1 90 39 is_stmt 0 discriminator 1
 817 0264 13060000 		li	a2,0
 818 0268 9305A000 		li	a1,10
 819 026c 13850400 		mv	a0,s1
 820 0270 97000000 		call	_Z8printIntiii@plt
 820      E7800000 
 821              	.LVL76:
 822              		.loc 1 90 44 is_stmt 1 discriminator 1
 823              		.loc 1 90 55 is_stmt 0 discriminator 1
 824 0278 17050000 		lla	a0,.LC1
 824      13050500 
 825 0280 97000000 		call	_Z11printStringPKc@plt
 825      E7800000 
 826              	.LVL77:
  89:src/../h/Threads_CPP_API_test.hpp ****     for (; i < 3; i++) {
 827              		.loc 1 89 5 is_stmt 1 discriminator 1
 828 0288 9B841400 		addiw	s1,s1,1
 829              	.LVL78:
 830 028c 93F4F40F 		andi	s1,s1,0xff
 831              	.LVL79:
 832              	.L45:
  89:src/../h/Threads_CPP_API_test.hpp ****     for (; i < 3; i++) {
 833              		.loc 1 89 5 discriminator 2
  89:src/../h/Threads_CPP_API_test.hpp ****     for (; i < 3; i++) {
 834              		.loc 1 89 14 discriminator 2
 835 0290 93072000 		li	a5,2
 836 0294 E3F097FC 		bleu	s1,a5,.L49
  91:src/../h/Threads_CPP_API_test.hpp ****     }
GAS LISTING /tmp/ccPIzBZ4.s 			page 19


  92:src/../h/Threads_CPP_API_test.hpp **** 
  93:src/../h/Threads_CPP_API_test.hpp ****     printString("C: dispatch\n");
 837              		.loc 1 93 5
 838              		.loc 1 93 16 is_stmt 0
 839 0298 17050000 		lla	a0,.LC6
 839      13050500 
 840 02a0 97000000 		call	_Z11printStringPKc@plt
 840      E7800000 
 841              	.LVL80:
  94:src/../h/Threads_CPP_API_test.hpp ****     __asm__ ("li t1, 7");
 842              		.loc 1 94 5 is_stmt 1
 843              		.loc 1 94 25 is_stmt 0
 844              	#APP
 845              	# 94 "src/../h/Threads_CPP_API_test.hpp" 1
  95              	    thread_dispatch();
 846              		li t1, 7
 847              	# 0 "" 2
 848              		.loc 1 95 5 is_stmt 1
 849              		.loc 1 95 20 is_stmt 0
 850              	#NO_APP
 851 02ac 97000000 		call	thread_dispatch@plt
 851      E7800000 
 852              	.LVL81:
  96:src/../h/Threads_CPP_API_test.hpp **** 
  97:src/../h/Threads_CPP_API_test.hpp ****     uint64 t1 = 0;
 853              		.loc 1 97 5 is_stmt 1
  98:src/../h/Threads_CPP_API_test.hpp ****     __asm__ ("mv %[t1], t1" : [t1] "=r"(t1));
 854              		.loc 1 98 5
 855              		.loc 1 98 45 is_stmt 0
 856              	#APP
 857              	# 98 "src/../h/Threads_CPP_API_test.hpp" 1
  99              	
 858              		mv s2, t1
 859              	# 0 "" 2
 860              	.LVL82:
 100:src/../h/Threads_CPP_API_test.hpp ****     printString("C: t1="); printInt(t1); printString("\n");
 861              		.loc 1 100 5 is_stmt 1
 862              		.loc 1 100 16 is_stmt 0
 863              	#NO_APP
 864 02b8 17050000 		lla	a0,.LC7
 864      13050500 
 865 02c0 97000000 		call	_Z11printStringPKc@plt
 865      E7800000 
 866              	.LVL83:
 867              		.loc 1 100 28 is_stmt 1
 868              		.loc 1 100 36 is_stmt 0
 869 02c8 13060000 		li	a2,0
 870 02cc 9305A000 		li	a1,10
 871 02d0 1B050900 		sext.w	a0,s2
 872 02d4 97000000 		call	_Z8printIntiii@plt
 872      E7800000 
 873              	.LVL84:
 874              		.loc 1 100 42 is_stmt 1
 875              		.loc 1 100 53 is_stmt 0
 876 02dc 17050000 		lla	a0,.LC1
 876      13050500 
 877 02e4 97000000 		call	_Z11printStringPKc@plt
GAS LISTING /tmp/ccPIzBZ4.s 			page 20


 877      E7800000 
 878              	.LVL85:
 101:src/../h/Threads_CPP_API_test.hpp **** 
 102:src/../h/Threads_CPP_API_test.hpp ****     uint64 result = fibonacci(12);
 879              		.loc 1 102 5 is_stmt 1
 880              		.loc 1 102 30 is_stmt 0
 881 02ec 1305C000 		li	a0,12
 882 02f0 97000000 		call	_Z9fibonaccim
 882      E7800000 
 883              	.LVL86:
 884 02f8 13090500 		mv	s2,a0
 885              	.LVL87:
 103:src/../h/Threads_CPP_API_test.hpp ****     printString("C: fibonaci="); printInt(result); printString("\n");
 886              		.loc 1 103 5 is_stmt 1
 887              		.loc 1 103 16 is_stmt 0
 888 02fc 17050000 		lla	a0,.LC8
 888      13050500 
 889              	.LVL88:
 890 0304 97000000 		call	_Z11printStringPKc@plt
 890      E7800000 
 891              	.LVL89:
 892              		.loc 1 103 34 is_stmt 1
 893              		.loc 1 103 42 is_stmt 0
 894 030c 13060000 		li	a2,0
 895 0310 9305A000 		li	a1,10
 896 0314 1B050900 		sext.w	a0,s2
 897 0318 97000000 		call	_Z8printIntiii@plt
 897      E7800000 
 898              	.LVL90:
 899              		.loc 1 103 52 is_stmt 1
 900              		.loc 1 103 63 is_stmt 0
 901 0320 17050000 		lla	a0,.LC1
 901      13050500 
 902 0328 97000000 		call	_Z11printStringPKc@plt
 902      E7800000 
 903              	.LVL91:
 904 0330 6F000004 		j	.L47
 905              	.L50:
 104:src/../h/Threads_CPP_API_test.hpp **** 
 105:src/../h/Threads_CPP_API_test.hpp ****     for (; i < 6; i++) {
 106:src/../h/Threads_CPP_API_test.hpp ****         printString("C: i="); printInt(i); printString("\n");
 906              		.loc 1 106 9 is_stmt 1 discriminator 1
 907              		.loc 1 106 20 is_stmt 0 discriminator 1
 908 0334 17050000 		lla	a0,.LC5
 908      13050500 
 909 033c 97000000 		call	_Z11printStringPKc@plt
 909      E7800000 
 910              	.LVL92:
 911              		.loc 1 106 31 is_stmt 1 discriminator 1
 912              		.loc 1 106 39 is_stmt 0 discriminator 1
 913 0344 13060000 		li	a2,0
 914 0348 9305A000 		li	a1,10
 915 034c 13850400 		mv	a0,s1
 916 0350 97000000 		call	_Z8printIntiii@plt
 916      E7800000 
 917              	.LVL93:
 918              		.loc 1 106 44 is_stmt 1 discriminator 1
GAS LISTING /tmp/ccPIzBZ4.s 			page 21


 919              		.loc 1 106 55 is_stmt 0 discriminator 1
 920 0358 17050000 		lla	a0,.LC1
 920      13050500 
 921 0360 97000000 		call	_Z11printStringPKc@plt
 921      E7800000 
 922              	.LVL94:
 105:src/../h/Threads_CPP_API_test.hpp ****         printString("C: i="); printInt(i); printString("\n");
 923              		.loc 1 105 5 is_stmt 1 discriminator 1
 924 0368 9B841400 		addiw	s1,s1,1
 925              	.LVL95:
 926 036c 93F4F40F 		andi	s1,s1,0xff
 927              	.LVL96:
 928              	.L47:
 105:src/../h/Threads_CPP_API_test.hpp ****         printString("C: i="); printInt(i); printString("\n");
 929              		.loc 1 105 5 discriminator 2
 105:src/../h/Threads_CPP_API_test.hpp ****         printString("C: i="); printInt(i); printString("\n");
 930              		.loc 1 105 14 discriminator 2
 931 0370 93075000 		li	a5,5
 932 0374 E3F097FC 		bleu	s1,a5,.L50
 107:src/../h/Threads_CPP_API_test.hpp ****     }
 108:src/../h/Threads_CPP_API_test.hpp **** 
 109:src/../h/Threads_CPP_API_test.hpp ****     printString("C finished!\n");
 933              		.loc 1 109 5
 934              		.loc 1 109 16 is_stmt 0
 935 0378 17050000 		lla	a0,.LC9
 935      13050500 
 936 0380 97000000 		call	_Z11printStringPKc@plt
 936      E7800000 
 937              	.LVL97:
 110:src/../h/Threads_CPP_API_test.hpp ****     finishedC = true;
 938              		.loc 1 110 5 is_stmt 1
 939              		.loc 1 110 15 is_stmt 0
 940 0388 93071000 		li	a5,1
 941 038c 17070000 		sb	a5,.LANCHOR0+34,a4
 941      2300F700 
 111:src/../h/Threads_CPP_API_test.hpp ****     //thread_dispatch();
 112:src/../h/Threads_CPP_API_test.hpp **** }
 942              		.loc 1 112 1
 943 0394 83308101 		ld	ra,24(sp)
 944              		.cfi_restore 1
 945 0398 03340101 		ld	s0,16(sp)
 946              		.cfi_restore 8
 947              		.cfi_def_cfa 2, 32
 948 039c 83348100 		ld	s1,8(sp)
 949              		.cfi_restore 9
 950              	.LVL98:
 951 03a0 03390100 		ld	s2,0(sp)
 952              		.cfi_restore 18
 953              	.LVL99:
 954 03a4 13010102 		addi	sp,sp,32
 955              		.cfi_def_cfa_offset 0
 956 03a8 67800000 		jr	ra
 957              		.cfi_endproc
 958              	.LFE43:
 960              		.section	.text._ZN7WorkerC3runEv,"axG",@progbits,_ZN7WorkerC3runEv,comdat
 961              		.align	2
 962              		.weak	_ZN7WorkerC3runEv
GAS LISTING /tmp/ccPIzBZ4.s 			page 22


 964              	_ZN7WorkerC3runEv:
 965              	.LFB36:
  44:src/../h/Threads_CPP_API_test.hpp ****         workerBodyC(nullptr);
 966              		.loc 1 44 10 is_stmt 1
 967              		.cfi_startproc
 968              	.LVL100:
 969 0000 130101FF 		addi	sp,sp,-16
 970              		.cfi_def_cfa_offset 16
 971 0004 23341100 		sd	ra,8(sp)
 972 0008 23308100 		sd	s0,0(sp)
 973              		.cfi_offset 1, -8
 974              		.cfi_offset 8, -16
 975 000c 13040101 		addi	s0,sp,16
 976              		.cfi_def_cfa 8, 0
  45:src/../h/Threads_CPP_API_test.hpp ****     }
 977              		.loc 1 45 9
  45:src/../h/Threads_CPP_API_test.hpp ****     }
 978              		.loc 1 45 20 is_stmt 0
 979 0010 93050000 		li	a1,0
 980 0014 97000000 		call	_ZN7WorkerC11workerBodyCEPv
 980      E7800000 
 981              	.LVL101:
  46:src/../h/Threads_CPP_API_test.hpp **** };
 982              		.loc 1 46 5
 983 001c 83308100 		ld	ra,8(sp)
 984              		.cfi_restore 1
 985 0020 03340100 		ld	s0,0(sp)
 986              		.cfi_restore 8
 987              		.cfi_def_cfa 2, 16
 988 0024 13010101 		addi	sp,sp,16
 989              		.cfi_def_cfa_offset 0
 990 0028 67800000 		jr	ra
 991              		.cfi_endproc
 992              	.LFE36:
 994              		.section	.rodata.str1.8
 995 0075 000000   		.align	3
 996              	.LC10:
 997 0078 443A2069 		.string	"D: i="
 997      3D00
 998 007e 0000     		.align	3
 999              	.LC11:
 1000 0080 443A2064 		.string	"D: dispatch\n"
 1000      69737061 
 1000      7463680A 
 1000      00
 1001 008d 000000   		.align	3
 1002              	.LC12:
 1003 0090 443A2066 		.string	"D: fibonaci="
 1003      69626F6E 
 1003      6163693D 
 1003      00
 1004 009d 000000   		.align	3
 1005              	.LC13:
 1006 00a0 44206669 		.string	"D finished!\n"
 1006      6E697368 
 1006      6564210A 
 1006      00
GAS LISTING /tmp/ccPIzBZ4.s 			page 23


 1007              		.text
 1008              		.align	2
 1009              		.globl	_ZN7WorkerD11workerBodyDEPv
 1011              	_ZN7WorkerD11workerBodyDEPv:
 1012              	.LFB44:
 113:src/../h/Threads_CPP_API_test.hpp **** 
 114:src/../h/Threads_CPP_API_test.hpp **** void WorkerD::workerBodyD(void* arg) {
 1013              		.loc 1 114 38 is_stmt 1
 1014              		.cfi_startproc
 1015              	.LVL102:
 1016 03ac 130101FE 		addi	sp,sp,-32
 1017              		.cfi_def_cfa_offset 32
 1018 03b0 233C1100 		sd	ra,24(sp)
 1019 03b4 23388100 		sd	s0,16(sp)
 1020 03b8 23349100 		sd	s1,8(sp)
 1021 03bc 23302101 		sd	s2,0(sp)
 1022              		.cfi_offset 1, -8
 1023              		.cfi_offset 8, -16
 1024              		.cfi_offset 9, -24
 1025              		.cfi_offset 18, -32
 1026 03c0 13040102 		addi	s0,sp,32
 1027              		.cfi_def_cfa 8, 0
 115:src/../h/Threads_CPP_API_test.hpp ****     uint8 i = 10;
 1028              		.loc 1 115 5
 1029              	.LVL103:
 1030              		.loc 1 115 11 is_stmt 0
 1031 03c4 9304A000 		li	s1,10
 1032 03c8 6F000004 		j	.L55
 1033              	.LVL104:
 1034              	.L59:
 116:src/../h/Threads_CPP_API_test.hpp ****     for (; i < 13; i++) {
 117:src/../h/Threads_CPP_API_test.hpp ****         printString("D: i="); printInt(i); printString("\n");
 1035              		.loc 1 117 9 is_stmt 1 discriminator 1
 1036              		.loc 1 117 20 is_stmt 0 discriminator 1
 1037 03cc 17050000 		lla	a0,.LC10
 1037      13050500 
 1038 03d4 97000000 		call	_Z11printStringPKc@plt
 1038      E7800000 
 1039              	.LVL105:
 1040              		.loc 1 117 31 is_stmt 1 discriminator 1
 1041              		.loc 1 117 39 is_stmt 0 discriminator 1
 1042 03dc 13060000 		li	a2,0
 1043 03e0 9305A000 		li	a1,10
 1044 03e4 13850400 		mv	a0,s1
 1045 03e8 97000000 		call	_Z8printIntiii@plt
 1045      E7800000 
 1046              	.LVL106:
 1047              		.loc 1 117 44 is_stmt 1 discriminator 1
 1048              		.loc 1 117 55 is_stmt 0 discriminator 1
 1049 03f0 17050000 		lla	a0,.LC1
 1049      13050500 
 1050 03f8 97000000 		call	_Z11printStringPKc@plt
 1050      E7800000 
 1051              	.LVL107:
 116:src/../h/Threads_CPP_API_test.hpp ****     for (; i < 13; i++) {
 1052              		.loc 1 116 5 is_stmt 1 discriminator 1
 1053 0400 9B841400 		addiw	s1,s1,1
GAS LISTING /tmp/ccPIzBZ4.s 			page 24


 1054              	.LVL108:
 1055 0404 93F4F40F 		andi	s1,s1,0xff
 1056              	.LVL109:
 1057              	.L55:
 116:src/../h/Threads_CPP_API_test.hpp ****     for (; i < 13; i++) {
 1058              		.loc 1 116 5 discriminator 2
 116:src/../h/Threads_CPP_API_test.hpp ****     for (; i < 13; i++) {
 1059              		.loc 1 116 14 discriminator 2
 1060 0408 9307C000 		li	a5,12
 1061 040c E3F097FC 		bleu	s1,a5,.L59
 118:src/../h/Threads_CPP_API_test.hpp ****     }
 119:src/../h/Threads_CPP_API_test.hpp **** 
 120:src/../h/Threads_CPP_API_test.hpp ****     printString("D: dispatch\n");
 1062              		.loc 1 120 5
 1063              		.loc 1 120 16 is_stmt 0
 1064 0410 17050000 		lla	a0,.LC11
 1064      13050500 
 1065 0418 97000000 		call	_Z11printStringPKc@plt
 1065      E7800000 
 1066              	.LVL110:
 121:src/../h/Threads_CPP_API_test.hpp ****     __asm__ ("li t1, 5");
 1067              		.loc 1 121 5 is_stmt 1
 1068              		.loc 1 121 25 is_stmt 0
 1069              	#APP
 1070              	# 121 "src/../h/Threads_CPP_API_test.hpp" 1
 122              	    thread_dispatch();
 1071              		li t1, 5
 1072              	# 0 "" 2
 1073              		.loc 1 122 5 is_stmt 1
 1074              		.loc 1 122 20 is_stmt 0
 1075              	#NO_APP
 1076 0424 97000000 		call	thread_dispatch@plt
 1076      E7800000 
 1077              	.LVL111:
 123:src/../h/Threads_CPP_API_test.hpp **** 
 124:src/../h/Threads_CPP_API_test.hpp ****     uint64 result = fibonacci(16);
 1078              		.loc 1 124 5 is_stmt 1
 1079              		.loc 1 124 30 is_stmt 0
 1080 042c 13050001 		li	a0,16
 1081 0430 97000000 		call	_Z9fibonaccim
 1081      E7800000 
 1082              	.LVL112:
 1083 0438 13090500 		mv	s2,a0
 1084              	.LVL113:
 125:src/../h/Threads_CPP_API_test.hpp ****     printString("D: fibonaci="); printInt(result); printString("\n");
 1085              		.loc 1 125 5 is_stmt 1
 1086              		.loc 1 125 16 is_stmt 0
 1087 043c 17050000 		lla	a0,.LC12
 1087      13050500 
 1088              	.LVL114:
 1089 0444 97000000 		call	_Z11printStringPKc@plt
 1089      E7800000 
 1090              	.LVL115:
 1091              		.loc 1 125 34 is_stmt 1
 1092              		.loc 1 125 42 is_stmt 0
 1093 044c 13060000 		li	a2,0
 1094 0450 9305A000 		li	a1,10
GAS LISTING /tmp/ccPIzBZ4.s 			page 25


 1095 0454 1B050900 		sext.w	a0,s2
 1096 0458 97000000 		call	_Z8printIntiii@plt
 1096      E7800000 
 1097              	.LVL116:
 1098              		.loc 1 125 52 is_stmt 1
 1099              		.loc 1 125 63 is_stmt 0
 1100 0460 17050000 		lla	a0,.LC1
 1100      13050500 
 1101 0468 97000000 		call	_Z11printStringPKc@plt
 1101      E7800000 
 1102              	.LVL117:
 1103 0470 6F000004 		j	.L57
 1104              	.L60:
 126:src/../h/Threads_CPP_API_test.hpp **** 
 127:src/../h/Threads_CPP_API_test.hpp ****     for (; i < 16; i++) {
 128:src/../h/Threads_CPP_API_test.hpp ****         printString("D: i="); printInt(i); printString("\n");
 1105              		.loc 1 128 9 is_stmt 1 discriminator 1
 1106              		.loc 1 128 20 is_stmt 0 discriminator 1
 1107 0474 17050000 		lla	a0,.LC10
 1107      13050500 
 1108 047c 97000000 		call	_Z11printStringPKc@plt
 1108      E7800000 
 1109              	.LVL118:
 1110              		.loc 1 128 31 is_stmt 1 discriminator 1
 1111              		.loc 1 128 39 is_stmt 0 discriminator 1
 1112 0484 13060000 		li	a2,0
 1113 0488 9305A000 		li	a1,10
 1114 048c 13850400 		mv	a0,s1
 1115 0490 97000000 		call	_Z8printIntiii@plt
 1115      E7800000 
 1116              	.LVL119:
 1117              		.loc 1 128 44 is_stmt 1 discriminator 1
 1118              		.loc 1 128 55 is_stmt 0 discriminator 1
 1119 0498 17050000 		lla	a0,.LC1
 1119      13050500 
 1120 04a0 97000000 		call	_Z11printStringPKc@plt
 1120      E7800000 
 1121              	.LVL120:
 127:src/../h/Threads_CPP_API_test.hpp ****         printString("D: i="); printInt(i); printString("\n");
 1122              		.loc 1 127 5 is_stmt 1 discriminator 1
 1123 04a8 9B841400 		addiw	s1,s1,1
 1124              	.LVL121:
 1125 04ac 93F4F40F 		andi	s1,s1,0xff
 1126              	.LVL122:
 1127              	.L57:
 127:src/../h/Threads_CPP_API_test.hpp ****         printString("D: i="); printInt(i); printString("\n");
 1128              		.loc 1 127 5 discriminator 2
 127:src/../h/Threads_CPP_API_test.hpp ****         printString("D: i="); printInt(i); printString("\n");
 1129              		.loc 1 127 14 discriminator 2
 1130 04b0 9307F000 		li	a5,15
 1131 04b4 E3F097FC 		bleu	s1,a5,.L60
 129:src/../h/Threads_CPP_API_test.hpp ****     }
 130:src/../h/Threads_CPP_API_test.hpp **** 
 131:src/../h/Threads_CPP_API_test.hpp ****     printString("D finished!\n");
 1132              		.loc 1 131 5
 1133              		.loc 1 131 16 is_stmt 0
 1134 04b8 17050000 		lla	a0,.LC13
GAS LISTING /tmp/ccPIzBZ4.s 			page 26


 1134      13050500 
 1135 04c0 97000000 		call	_Z11printStringPKc@plt
 1135      E7800000 
 1136              	.LVL123:
 132:src/../h/Threads_CPP_API_test.hpp ****     finishedD = true;
 1137              		.loc 1 132 5 is_stmt 1
 1138              		.loc 1 132 15 is_stmt 0
 1139 04c8 93071000 		li	a5,1
 1140 04cc 17070000 		sb	a5,.LANCHOR0+35,a4
 1140      2300F700 
 133:src/../h/Threads_CPP_API_test.hpp ****     thread_dispatch();
 1141              		.loc 1 133 5 is_stmt 1
 1142              		.loc 1 133 20 is_stmt 0
 1143 04d4 97000000 		call	thread_dispatch@plt
 1143      E7800000 
 1144              	.LVL124:
 134:src/../h/Threads_CPP_API_test.hpp **** }
 1145              		.loc 1 134 1
 1146 04dc 83308101 		ld	ra,24(sp)
 1147              		.cfi_restore 1
 1148 04e0 03340101 		ld	s0,16(sp)
 1149              		.cfi_restore 8
 1150              		.cfi_def_cfa 2, 32
 1151 04e4 83348100 		ld	s1,8(sp)
 1152              		.cfi_restore 9
 1153              	.LVL125:
 1154 04e8 03390100 		ld	s2,0(sp)
 1155              		.cfi_restore 18
 1156              	.LVL126:
 1157 04ec 13010102 		addi	sp,sp,32
 1158              		.cfi_def_cfa_offset 0
 1159 04f0 67800000 		jr	ra
 1160              		.cfi_endproc
 1161              	.LFE44:
 1163              		.section	.text._ZN7WorkerD3runEv,"axG",@progbits,_ZN7WorkerD3runEv,comdat
 1164              		.align	2
 1165              		.weak	_ZN7WorkerD3runEv
 1167              	_ZN7WorkerD3runEv:
 1168              	.LFB40:
  54:src/../h/Threads_CPP_API_test.hpp ****         workerBodyD(nullptr);
 1169              		.loc 1 54 10 is_stmt 1
 1170              		.cfi_startproc
 1171              	.LVL127:
 1172 0000 130101FF 		addi	sp,sp,-16
 1173              		.cfi_def_cfa_offset 16
 1174 0004 23341100 		sd	ra,8(sp)
 1175 0008 23308100 		sd	s0,0(sp)
 1176              		.cfi_offset 1, -8
 1177              		.cfi_offset 8, -16
 1178 000c 13040101 		addi	s0,sp,16
 1179              		.cfi_def_cfa 8, 0
  55:src/../h/Threads_CPP_API_test.hpp ****     }
 1180              		.loc 1 55 9
  55:src/../h/Threads_CPP_API_test.hpp ****     }
 1181              		.loc 1 55 20 is_stmt 0
 1182 0010 93050000 		li	a1,0
 1183 0014 97000000 		call	_ZN7WorkerD11workerBodyDEPv
GAS LISTING /tmp/ccPIzBZ4.s 			page 27


 1183      E7800000 
 1184              	.LVL128:
  56:src/../h/Threads_CPP_API_test.hpp **** };
 1185              		.loc 1 56 5
 1186 001c 83308100 		ld	ra,8(sp)
 1187              		.cfi_restore 1
 1188 0020 03340100 		ld	s0,0(sp)
 1189              		.cfi_restore 8
 1190              		.cfi_def_cfa 2, 16
 1191 0024 13010101 		addi	sp,sp,16
 1192              		.cfi_def_cfa_offset 0
 1193 0028 67800000 		jr	ra
 1194              		.cfi_endproc
 1195              	.LFE40:
 1197              		.section	.rodata.str1.8
 1198 00ad 000000   		.align	3
 1199              	.LC14:
 1200 00b0 54687265 		.string	"ThreadA created\n"
 1200      61644120 
 1200      63726561 
 1200      7465640A 
 1200      00
 1201 00c1 00000000 		.align	3
 1201      000000
 1202              	.LC15:
 1203 00c8 54687265 		.string	"ThreadB created\n"
 1203      61644220 
 1203      63726561 
 1203      7465640A 
 1203      00
 1204 00d9 00000000 		.align	3
 1204      000000
 1205              	.LC16:
 1206 00e0 54687265 		.string	"ThreadC created\n"
 1206      61644320 
 1206      63726561 
 1206      7465640A 
 1206      00
 1207 00f1 00000000 		.align	3
 1207      000000
 1208              	.LC17:
 1209 00f8 54687265 		.string	"ThreadD created\n"
 1209      61644420 
 1209      63726561 
 1209      7465640A 
 1209      00
 1210              		.text
 1211              		.align	2
 1212              		.globl	_Z20Threads_CPP_API_testv
 1214              	_Z20Threads_CPP_API_testv:
 1215              	.LFB45:
 135:src/../h/Threads_CPP_API_test.hpp **** 
 136:src/../h/Threads_CPP_API_test.hpp **** 
 137:src/../h/Threads_CPP_API_test.hpp **** void Threads_CPP_API_test() {
 1216              		.loc 1 137 29 is_stmt 1
 1217              		.cfi_startproc
 1218 04f4 130101FE 		addi	sp,sp,-32
GAS LISTING /tmp/ccPIzBZ4.s 			page 28


 1219              		.cfi_def_cfa_offset 32
 1220 04f8 233C1100 		sd	ra,24(sp)
 1221 04fc 23388100 		sd	s0,16(sp)
 1222 0500 23349100 		sd	s1,8(sp)
 1223              		.cfi_offset 1, -8
 1224              		.cfi_offset 8, -16
 1225              		.cfi_offset 9, -24
 1226 0504 13040102 		addi	s0,sp,32
 1227              		.cfi_def_cfa 8, 0
 138:src/../h/Threads_CPP_API_test.hpp **** 
 139:src/../h/Threads_CPP_API_test.hpp **** 
 140:src/../h/Threads_CPP_API_test.hpp ****     threads[0] = new WorkerA();
 1228              		.loc 1 140 5
 1229              		.loc 1 140 30 is_stmt 0
 1230 0508 13050001 		li	a0,16
 1231 050c 97000000 		call	_Znwm@plt
 1231      E7800000 
 1232              	.LVL129:
 1233              	.LBB84:
 1234              	.LBB85:
 1235              	.LBB86:
 1236              	.LBB87:
 1237              		.file 2 "src/../h/syscall_cpp.hpp"
   1:src/../h/syscall_cpp.hpp **** #ifndef PROJECT_BASE_V1_1_SYSCALL_CPP_HPP
   2:src/../h/syscall_cpp.hpp **** #define PROJECT_BASE_V1_1_SYSCALL_CPP_HPP
   3:src/../h/syscall_cpp.hpp **** 
   4:src/../h/syscall_cpp.hpp **** #include "syscall_c.h"
   5:src/../h/syscall_cpp.hpp **** #include "../lib/hw.h"
   6:src/../h/syscall_cpp.hpp **** #include "tcb.hpp"
   7:src/../h/syscall_cpp.hpp **** 
   8:src/../h/syscall_cpp.hpp **** void* operator new (size_t);
   9:src/../h/syscall_cpp.hpp **** void* operator new[] (size_t);
  10:src/../h/syscall_cpp.hpp **** void operator delete (void*);
  11:src/../h/syscall_cpp.hpp **** void operator delete[](void *tmp);
  12:src/../h/syscall_cpp.hpp **** 
  13:src/../h/syscall_cpp.hpp **** 
  14:src/../h/syscall_cpp.hpp **** class Thread {
  15:src/../h/syscall_cpp.hpp **** public:
  16:src/../h/syscall_cpp.hpp ****     Thread (void (*body)(void*), void* arg){}
  17:src/../h/syscall_cpp.hpp ****     virtual ~Thread ();
  18:src/../h/syscall_cpp.hpp ****     int start ();
  19:src/../h/syscall_cpp.hpp ****     static void dispatch ();
  20:src/../h/syscall_cpp.hpp ****     static int sleep (time_t);
  21:src/../h/syscall_cpp.hpp ****     void join();
  22:src/../h/syscall_cpp.hpp **** protected:
  23:src/../h/syscall_cpp.hpp ****     Thread (){myHandle = nullptr;}
 1238              		.loc 2 23 15 is_stmt 1
 1239              		.loc 2 23 24 is_stmt 0
 1240 0514 23340500 		sd	zero,8(a0)
 1241              	.LVL130:
 1242              	.LBE87:
 1243              	.LBE86:
  22:src/../h/Threads_CPP_API_test.hpp **** 
 1244              		.loc 1 22 22
 1245 0518 97070000 		lla	a5,_ZTV7WorkerA+16
 1245      93870700 
 1246 0520 2330F500 		sd	a5,0(a0)
GAS LISTING /tmp/ccPIzBZ4.s 			page 29


 1247              	.LVL131:
 1248              	.LBE85:
 1249              	.LBE84:
 1250              		.loc 1 140 16
 1251 0524 97040000 		lla	s1,.LANCHOR0
 1251      93840400 
 1252 052c 23B0A400 		sd	a0,0(s1)
 141:src/../h/Threads_CPP_API_test.hpp ****     printString("ThreadA created\n");
 1253              		.loc 1 141 5 is_stmt 1
 1254              		.loc 1 141 16 is_stmt 0
 1255 0530 17050000 		lla	a0,.LC14
 1255      13050500 
 1256 0538 97000000 		call	_Z11printStringPKc@plt
 1256      E7800000 
 1257              	.LVL132:
 142:src/../h/Threads_CPP_API_test.hpp **** 
 143:src/../h/Threads_CPP_API_test.hpp ****     threads[1] = new WorkerB();
 1258              		.loc 1 143 5 is_stmt 1
 1259              		.loc 1 143 30 is_stmt 0
 1260 0540 13050001 		li	a0,16
 1261 0544 97000000 		call	_Znwm@plt
 1261      E7800000 
 1262              	.LVL133:
 1263              	.LBB88:
 1264              	.LBB89:
 1265              	.LBB90:
 1266              	.LBB91:
 1267              		.loc 2 23 15 is_stmt 1
 1268              		.loc 2 23 24 is_stmt 0
 1269 054c 23340500 		sd	zero,8(a0)
 1270              	.LVL134:
 1271              	.LBE91:
 1272              	.LBE90:
  32:src/../h/Threads_CPP_API_test.hpp **** 
 1273              		.loc 1 32 22
 1274 0550 97070000 		lla	a5,_ZTV7WorkerB+16
 1274      93870700 
 1275 0558 2330F500 		sd	a5,0(a0)
 1276              	.LVL135:
 1277              	.LBE89:
 1278              	.LBE88:
 1279              		.loc 1 143 16
 1280 055c 23B4A400 		sd	a0,8(s1)
 144:src/../h/Threads_CPP_API_test.hpp ****     printString("ThreadB created\n");
 1281              		.loc 1 144 5 is_stmt 1
 1282              		.loc 1 144 16 is_stmt 0
 1283 0560 17050000 		lla	a0,.LC15
 1283      13050500 
 1284 0568 97000000 		call	_Z11printStringPKc@plt
 1284      E7800000 
 1285              	.LVL136:
 145:src/../h/Threads_CPP_API_test.hpp **** 
 146:src/../h/Threads_CPP_API_test.hpp ****     threads[2] = new WorkerC();
 1286              		.loc 1 146 5 is_stmt 1
 1287              		.loc 1 146 30 is_stmt 0
 1288 0570 13050001 		li	a0,16
 1289 0574 97000000 		call	_Znwm@plt
GAS LISTING /tmp/ccPIzBZ4.s 			page 30


 1289      E7800000 
 1290              	.LVL137:
 1291              	.LBB92:
 1292              	.LBB93:
 1293              	.LBB94:
 1294              	.LBB95:
 1295              		.loc 2 23 15 is_stmt 1
 1296              		.loc 2 23 24 is_stmt 0
 1297 057c 23340500 		sd	zero,8(a0)
 1298              	.LVL138:
 1299              	.LBE95:
 1300              	.LBE94:
  42:src/../h/Threads_CPP_API_test.hpp **** 
 1301              		.loc 1 42 22
 1302 0580 97070000 		lla	a5,_ZTV7WorkerC+16
 1302      93870700 
 1303 0588 2330F500 		sd	a5,0(a0)
 1304              	.LVL139:
 1305              	.LBE93:
 1306              	.LBE92:
 1307              		.loc 1 146 16
 1308 058c 23B8A400 		sd	a0,16(s1)
 147:src/../h/Threads_CPP_API_test.hpp ****     printString("ThreadC created\n");
 1309              		.loc 1 147 5 is_stmt 1
 1310              		.loc 1 147 16 is_stmt 0
 1311 0590 17050000 		lla	a0,.LC16
 1311      13050500 
 1312 0598 97000000 		call	_Z11printStringPKc@plt
 1312      E7800000 
 1313              	.LVL140:
 148:src/../h/Threads_CPP_API_test.hpp **** 
 149:src/../h/Threads_CPP_API_test.hpp ****     threads[3] = new WorkerD();
 1314              		.loc 1 149 5 is_stmt 1
 1315              		.loc 1 149 30 is_stmt 0
 1316 05a0 13050001 		li	a0,16
 1317 05a4 97000000 		call	_Znwm@plt
 1317      E7800000 
 1318              	.LVL141:
 1319              	.LBB96:
 1320              	.LBB97:
 1321              	.LBB98:
 1322              	.LBB99:
 1323              		.loc 2 23 15 is_stmt 1
 1324              		.loc 2 23 24 is_stmt 0
 1325 05ac 23340500 		sd	zero,8(a0)
 1326              	.LVL142:
 1327              	.LBE99:
 1328              	.LBE98:
  52:src/../h/Threads_CPP_API_test.hpp **** 
 1329              		.loc 1 52 22
 1330 05b0 97070000 		lla	a5,_ZTV7WorkerD+16
 1330      93870700 
 1331 05b8 2330F500 		sd	a5,0(a0)
 1332              	.LVL143:
 1333              	.LBE97:
 1334              	.LBE96:
 1335              		.loc 1 149 16
GAS LISTING /tmp/ccPIzBZ4.s 			page 31


 1336 05bc 23BCA400 		sd	a0,24(s1)
 150:src/../h/Threads_CPP_API_test.hpp ****     printString("ThreadD created\n");
 1337              		.loc 1 150 5 is_stmt 1
 1338              		.loc 1 150 16 is_stmt 0
 1339 05c0 17050000 		lla	a0,.LC17
 1339      13050500 
 1340 05c8 97000000 		call	_Z11printStringPKc@plt
 1340      E7800000 
 1341              	.LVL144:
 151:src/../h/Threads_CPP_API_test.hpp **** 
 152:src/../h/Threads_CPP_API_test.hpp ****     for(int i=0; i<4; i++) {
 1342              		.loc 1 152 5 is_stmt 1
 1343              	.LBB100:
 1344              		.loc 1 152 13 is_stmt 0
 1345 05d0 93040000 		li	s1,0
 1346              	.LVL145:
 1347              	.L65:
 1348              		.loc 1 152 19 is_stmt 1 discriminator 3
 1349 05d4 93073000 		li	a5,3
 1350 05d8 63C89702 		bgt	s1,a5,.L64
 153:src/../h/Threads_CPP_API_test.hpp ****         threads[i]->start();
 1351              		.loc 1 153 9 discriminator 2
 1352              		.loc 1 153 18 is_stmt 0 discriminator 2
 1353 05dc 13973400 		slli	a4,s1,3
 1354 05e0 97070000 		lla	a5,.LANCHOR0
 1354      93870700 
 1355 05e8 B387E700 		add	a5,a5,a4
 1356              		.loc 1 153 26 discriminator 2
 1357 05ec 03B50700 		ld	a0,0(a5)
 1358 05f0 97000000 		call	_ZN6Thread5startEv@plt
 1358      E7800000 
 1359              	.LVL146:
 152:src/../h/Threads_CPP_API_test.hpp ****         threads[i]->start();
 1360              		.loc 1 152 5 is_stmt 1 discriminator 2
 1361 05f8 9B841400 		addiw	s1,s1,1
 1362              	.LVL147:
 1363 05fc 6FF09FFD 		j	.L65
 1364              	.LVL148:
 1365              	.L66:
 1366              	.LBE100:
 154:src/../h/Threads_CPP_API_test.hpp ****     }
 155:src/../h/Threads_CPP_API_test.hpp **** 
 156:src/../h/Threads_CPP_API_test.hpp ****     while (!(finishedA && finishedB && finishedC && finishedD)) {
 157:src/../h/Threads_CPP_API_test.hpp ****         Thread::dispatch();
 1367              		.loc 1 157 9
 1368              		.loc 1 157 25 is_stmt 0
 1369 0600 97000000 		call	_ZN6Thread8dispatchEv@plt
 1369      E7800000 
 1370              	.LVL149:
 1371              	.L64:
 156:src/../h/Threads_CPP_API_test.hpp ****         Thread::dispatch();
 1372              		.loc 1 156 5 is_stmt 1
 156:src/../h/Threads_CPP_API_test.hpp ****         Thread::dispatch();
 1373              		.loc 1 156 12
 1374 0608 97070000 		lbu	a5,.LANCHOR0+32
 1374      83C70700 
 1375 0610 E38807FE 		beqz	a5,.L66
GAS LISTING /tmp/ccPIzBZ4.s 			page 32


 156:src/../h/Threads_CPP_API_test.hpp ****         Thread::dispatch();
 1376              		.loc 1 156 24 is_stmt 0 discriminator 1
 1377 0614 97070000 		lbu	a5,.LANCHOR0+33
 1377      83C70700 
 1378 061c E38207FE 		beqz	a5,.L66
 156:src/../h/Threads_CPP_API_test.hpp ****         Thread::dispatch();
 1379              		.loc 1 156 37 discriminator 2
 1380 0620 97070000 		lbu	a5,.LANCHOR0+34
 1380      83C70700 
 1381 0628 E38C07FC 		beqz	a5,.L66
 156:src/../h/Threads_CPP_API_test.hpp ****         Thread::dispatch();
 1382              		.loc 1 156 12 discriminator 3
 1383 062c 97070000 		lbu	a5,.LANCHOR0+35
 1383      83C70700 
 1384 0634 E38607FC 		beqz	a5,.L66
 1385              	.LBB101:
 158:src/../h/Threads_CPP_API_test.hpp ****     }
 159:src/../h/Threads_CPP_API_test.hpp **** 
 160:src/../h/Threads_CPP_API_test.hpp ****     for (auto thread: threads) { delete thread; }
 1386              		.loc 1 160 23
 1387 0638 97040000 		lla	s1,.LANCHOR0
 1387      93840400 
 1388              	.LVL150:
 1389 0640 6F008000 		j	.L67
 1390              	.LVL151:
 1391              	.L69:
 1392              		.loc 1 160 5 is_stmt 1 discriminator 5
 1393 0644 93848400 		addi	s1,s1,8
 1394              	.LVL152:
 1395              	.L67:
 1396              		.loc 1 160 23 discriminator 6
 1397 0648 97070000 		lla	a5,.LANCHOR0+32
 1397      93870700 
 1398 0650 638EF400 		beq	s1,a5,.L63
 1399              		.loc 1 160 15 is_stmt 0 discriminator 2
 1400 0654 03B50400 		ld	a0,0(s1)
 1401              	.LVL153:
 1402              		.loc 1 160 34 is_stmt 1 discriminator 2
 1403              		.loc 1 160 47 is_stmt 0 discriminator 2
 1404 0658 E30605FE 		beqz	a0,.L69
 1405              		.loc 1 160 41 discriminator 3
 1406 065c 83370500 		ld	a5,0(a0)
 1407 0660 83B78700 		ld	a5,8(a5)
 1408 0664 E7800700 		jalr	a5
 1409              	.LVL154:
 1410 0668 6FF0DFFD 		j	.L69
 1411              	.L63:
 1412              	.LBE101:
 161:src/../h/Threads_CPP_API_test.hpp **** }
 1413              		.loc 1 161 1
 1414 066c 83308101 		ld	ra,24(sp)
 1415              		.cfi_restore 1
 1416 0670 03340101 		ld	s0,16(sp)
 1417              		.cfi_restore 8
 1418              		.cfi_def_cfa 2, 32
 1419 0674 83348100 		ld	s1,8(sp)
 1420              		.cfi_restore 9
GAS LISTING /tmp/ccPIzBZ4.s 			page 33


 1421              	.LVL155:
 1422 0678 13010102 		addi	sp,sp,32
 1423              		.cfi_def_cfa_offset 0
 1424 067c 67800000 		jr	ra
 1425              		.cfi_endproc
 1426              	.LFE45:
 1428              		.align	2
 1429              		.globl	_Z8userMainv
 1431              	_Z8userMainv:
 1432              	.LFB46:
 1433              		.file 3 "src/userMain.cpp"
   1:src/userMain.cpp **** //#include "../h/Threads_C_API_test.hpp" // zadatak 2, niti C API i sinhrona promena konteksta
   2:src/userMain.cpp **** #include "../h/Threads_CPP_API_test.hpp" // zadatak 2., niti CPP API i sinhrona promena konteksta
   3:src/userMain.cpp **** 
   4:src/userMain.cpp **** //#include "../test/ConsumerProducer_C_API_test.h" // zadatak 3., kompletan C API sa semaforima, si
   5:src/userMain.cpp **** //#include "../test/ConsumerProducer_CPP_Sync_API_test.hpp" // zadatak 3., kompletan CPP API sa sem
   6:src/userMain.cpp **** 
   7:src/userMain.cpp **** //#include "../test/ThreadSleep_C_API_test.hpp"
   8:src/userMain.cpp **** // thread_sleep test C API
   9:src/userMain.cpp **** //#include "../test/ConsumerProducer_CPP_API_test.hpp" // zadatak 4. CPP API i asinhrona promena ko
  10:src/userMain.cpp **** 
  11:src/userMain.cpp **** void userMain() {
 1434              		.loc 3 11 17 is_stmt 1
 1435              		.cfi_startproc
 1436 0680 130101FF 		addi	sp,sp,-16
 1437              		.cfi_def_cfa_offset 16
 1438 0684 23341100 		sd	ra,8(sp)
 1439 0688 23308100 		sd	s0,0(sp)
 1440              		.cfi_offset 1, -8
 1441              		.cfi_offset 8, -16
 1442 068c 13040101 		addi	s0,sp,16
 1443              		.cfi_def_cfa 8, 0
  12:src/userMain.cpp ****     //Threads_C_API_test(); // zadatak 2., niti C API i sinhrona promena konteksta
  13:src/userMain.cpp ****     Threads_CPP_API_test(); // zadatak 2., niti CPP API i sinhrona promena konteksta
 1444              		.loc 3 13 5
 1445              		.loc 3 13 25 is_stmt 0
 1446 0690 97000000 		call	_Z20Threads_CPP_API_testv
 1446      E7800000 
 1447              	.LVL156:
  14:src/userMain.cpp **** 
  15:src/userMain.cpp ****     //producerConsumer_C_API(); // zadatak 3., kompletan C API sa semaforima, sinhrona promena kont
  16:src/userMain.cpp ****     //producerConsumer_CPP_Sync_API(); // zadatak 3., kompletan CPP API sa semaforima, sinhrona pro
  17:src/userMain.cpp **** 
  18:src/userMain.cpp ****     //testSleeping(); // thread_sleep test C API
  19:src/userMain.cpp ****     //ConsumerProducerCPP::testConsumerProducer(); // zadatak 4. CPP API i asinhrona promena kontek
  20:src/userMain.cpp **** 
  21:src/userMain.cpp **** }...
 1448              		.loc 3 21 1
 1449 0698 83308100 		ld	ra,8(sp)
 1450              		.cfi_restore 1
 1451 069c 03340100 		ld	s0,0(sp)
 1452              		.cfi_restore 8
 1453              		.cfi_def_cfa 2, 16
 1454 06a0 13010101 		addi	sp,sp,16
 1455              		.cfi_def_cfa_offset 0
 1456 06a4 67800000 		jr	ra
 1457              		.cfi_endproc
GAS LISTING /tmp/ccPIzBZ4.s 			page 34


 1458              	.LFE46:
 1460              		.weak	_ZTV7WorkerA
 1461              		.section	.data.rel.ro.local._ZTV7WorkerA,"awG",@progbits,_ZTV7WorkerA,comdat
 1462              		.align	3
 1465              	_ZTV7WorkerA:
 1466 0000 00000000 		.dword	0
 1466      00000000 
 1467 0008 00000000 		.dword	0
 1467      00000000 
 1468 0010 00000000 		.dword	_ZN7WorkerAD1Ev
 1468      00000000 
 1469 0018 00000000 		.dword	_ZN7WorkerAD0Ev
 1469      00000000 
 1470 0020 00000000 		.dword	_ZN7WorkerA3runEv
 1470      00000000 
 1471              		.weak	_ZTV7WorkerB
 1472              		.section	.data.rel.ro.local._ZTV7WorkerB,"awG",@progbits,_ZTV7WorkerB,comdat
 1473              		.align	3
 1476              	_ZTV7WorkerB:
 1477 0000 00000000 		.dword	0
 1477      00000000 
 1478 0008 00000000 		.dword	0
 1478      00000000 
 1479 0010 00000000 		.dword	_ZN7WorkerBD1Ev
 1479      00000000 
 1480 0018 00000000 		.dword	_ZN7WorkerBD0Ev
 1480      00000000 
 1481 0020 00000000 		.dword	_ZN7WorkerB3runEv
 1481      00000000 
 1482              		.weak	_ZTV7WorkerC
 1483              		.section	.data.rel.ro.local._ZTV7WorkerC,"awG",@progbits,_ZTV7WorkerC,comdat
 1484              		.align	3
 1487              	_ZTV7WorkerC:
 1488 0000 00000000 		.dword	0
 1488      00000000 
 1489 0008 00000000 		.dword	0
 1489      00000000 
 1490 0010 00000000 		.dword	_ZN7WorkerCD1Ev
 1490      00000000 
 1491 0018 00000000 		.dword	_ZN7WorkerCD0Ev
 1491      00000000 
 1492 0020 00000000 		.dword	_ZN7WorkerC3runEv
 1492      00000000 
 1493              		.weak	_ZTV7WorkerD
 1494              		.section	.data.rel.ro.local._ZTV7WorkerD,"awG",@progbits,_ZTV7WorkerD,comdat
 1495              		.align	3
 1498              	_ZTV7WorkerD:
 1499 0000 00000000 		.dword	0
 1499      00000000 
 1500 0008 00000000 		.dword	0
 1500      00000000 
 1501 0010 00000000 		.dword	_ZN7WorkerDD1Ev
 1501      00000000 
 1502 0018 00000000 		.dword	_ZN7WorkerDD0Ev
 1502      00000000 
 1503 0020 00000000 		.dword	_ZN7WorkerD3runEv
 1503      00000000 
GAS LISTING /tmp/ccPIzBZ4.s 			page 35


 1504              		.globl	finishedD
 1505              		.globl	finishedC
 1506              		.globl	finishedB
 1507              		.globl	finishedA
 1508              		.globl	threads
 1509              		.bss
 1510              		.align	3
 1511              		.set	.LANCHOR0,. + 0
 1514              	threads:
 1515 0000 00000000 		.zero	32
 1515      00000000 
 1515      00000000 
 1515      00000000 
 1515      00000000 
 1518              	finishedA:
 1519 0020 00       		.zero	1
 1522              	finishedB:
 1523 0021 00       		.zero	1
 1526              	finishedC:
 1527 0022 00       		.zero	1
 1530              	finishedD:
 1531 0023 00       		.zero	1
 1532              		.text
 1533              	.Letext0:
 1534              		.file 4 "src/../h/../lib/hw.h"
 1535              		.file 5 "src/../h/printing.hpp"
 1536              		.file 6 "src/../h/syscall_c.h"
GAS LISTING /tmp/ccPIzBZ4.s 			page 36


DEFINED SYMBOLS
                            *ABS*:0000000000000000 userMain.cpp
     /tmp/ccPIzBZ4.s:10     .text._ZN7WorkerAD2Ev:0000000000000000 _ZN7WorkerAD2Ev
     /tmp/ccPIzBZ4.s:14     .text._ZN7WorkerAD2Ev:0000000000000000 .L0 
     /tmp/ccPIzBZ4.s:16     .text._ZN7WorkerAD2Ev:0000000000000000 .L0 
     /tmp/ccPIzBZ4.s:17     .text._ZN7WorkerAD2Ev:0000000000000004 .L0 
     /tmp/ccPIzBZ4.s:20     .text._ZN7WorkerAD2Ev:000000000000000c .L0 
     /tmp/ccPIzBZ4.s:21     .text._ZN7WorkerAD2Ev:000000000000000c .L0 
     /tmp/ccPIzBZ4.s:23     .text._ZN7WorkerAD2Ev:0000000000000010 .L0 
     /tmp/ccPIzBZ4.s:1465   .data.rel.ro.local._ZTV7WorkerA:0000000000000000 _ZTV7WorkerA
     /tmp/ccPIzBZ4.s:26     .text._ZN7WorkerAD2Ev:0000000000000010 .L0 
     /tmp/ccPIzBZ4.s:32     .text._ZN7WorkerAD2Ev:0000000000000028 .L0 
     /tmp/ccPIzBZ4.s:34     .text._ZN7WorkerAD2Ev:000000000000002c .L0 
     /tmp/ccPIzBZ4.s:35     .text._ZN7WorkerAD2Ev:000000000000002c .L0 
     /tmp/ccPIzBZ4.s:37     .text._ZN7WorkerAD2Ev:0000000000000030 .L0 
     /tmp/ccPIzBZ4.s:39     .text._ZN7WorkerAD2Ev:0000000000000034 .L0 
     /tmp/ccPIzBZ4.s:10     .text._ZN7WorkerAD2Ev:0000000000000000 _ZN7WorkerAD1Ev
     /tmp/ccPIzBZ4.s:48     .text._ZN7WorkerAD0Ev:0000000000000000 _ZN7WorkerAD0Ev
     /tmp/ccPIzBZ4.s:51     .text._ZN7WorkerAD0Ev:0000000000000000 .L0 
     /tmp/ccPIzBZ4.s:53     .text._ZN7WorkerAD0Ev:0000000000000000 .L0 
     /tmp/ccPIzBZ4.s:54     .text._ZN7WorkerAD0Ev:0000000000000004 .L0 
     /tmp/ccPIzBZ4.s:58     .text._ZN7WorkerAD0Ev:0000000000000010 .L0 
     /tmp/ccPIzBZ4.s:59     .text._ZN7WorkerAD0Ev:0000000000000010 .L0 
     /tmp/ccPIzBZ4.s:60     .text._ZN7WorkerAD0Ev:0000000000000010 .L0 
     /tmp/ccPIzBZ4.s:62     .text._ZN7WorkerAD0Ev:0000000000000014 .L0 
     /tmp/ccPIzBZ4.s:68     .text._ZN7WorkerAD0Ev:0000000000000018 .L0 
     /tmp/ccPIzBZ4.s:78     .text._ZN7WorkerAD0Ev:000000000000003c .L0 
     /tmp/ccPIzBZ4.s:80     .text._ZN7WorkerAD0Ev:0000000000000040 .L0 
     /tmp/ccPIzBZ4.s:81     .text._ZN7WorkerAD0Ev:0000000000000040 .L0 
     /tmp/ccPIzBZ4.s:83     .text._ZN7WorkerAD0Ev:0000000000000044 .L0 
     /tmp/ccPIzBZ4.s:86     .text._ZN7WorkerAD0Ev:0000000000000048 .L0 
     /tmp/ccPIzBZ4.s:88     .text._ZN7WorkerAD0Ev:000000000000004c .L0 
     /tmp/ccPIzBZ4.s:95     .text._ZN7WorkerBD2Ev:0000000000000000 _ZN7WorkerBD2Ev
     /tmp/ccPIzBZ4.s:98     .text._ZN7WorkerBD2Ev:0000000000000000 .L0 
     /tmp/ccPIzBZ4.s:100    .text._ZN7WorkerBD2Ev:0000000000000000 .L0 
     /tmp/ccPIzBZ4.s:101    .text._ZN7WorkerBD2Ev:0000000000000004 .L0 
     /tmp/ccPIzBZ4.s:104    .text._ZN7WorkerBD2Ev:000000000000000c .L0 
     /tmp/ccPIzBZ4.s:105    .text._ZN7WorkerBD2Ev:000000000000000c .L0 
     /tmp/ccPIzBZ4.s:107    .text._ZN7WorkerBD2Ev:0000000000000010 .L0 
     /tmp/ccPIzBZ4.s:1476   .data.rel.ro.local._ZTV7WorkerB:0000000000000000 _ZTV7WorkerB
     /tmp/ccPIzBZ4.s:110    .text._ZN7WorkerBD2Ev:0000000000000010 .L0 
     /tmp/ccPIzBZ4.s:116    .text._ZN7WorkerBD2Ev:0000000000000028 .L0 
     /tmp/ccPIzBZ4.s:118    .text._ZN7WorkerBD2Ev:000000000000002c .L0 
     /tmp/ccPIzBZ4.s:119    .text._ZN7WorkerBD2Ev:000000000000002c .L0 
     /tmp/ccPIzBZ4.s:121    .text._ZN7WorkerBD2Ev:0000000000000030 .L0 
     /tmp/ccPIzBZ4.s:123    .text._ZN7WorkerBD2Ev:0000000000000034 .L0 
     /tmp/ccPIzBZ4.s:95     .text._ZN7WorkerBD2Ev:0000000000000000 _ZN7WorkerBD1Ev
     /tmp/ccPIzBZ4.s:132    .text._ZN7WorkerBD0Ev:0000000000000000 _ZN7WorkerBD0Ev
     /tmp/ccPIzBZ4.s:135    .text._ZN7WorkerBD0Ev:0000000000000000 .L0 
     /tmp/ccPIzBZ4.s:137    .text._ZN7WorkerBD0Ev:0000000000000000 .L0 
     /tmp/ccPIzBZ4.s:138    .text._ZN7WorkerBD0Ev:0000000000000004 .L0 
     /tmp/ccPIzBZ4.s:142    .text._ZN7WorkerBD0Ev:0000000000000010 .L0 
     /tmp/ccPIzBZ4.s:143    .text._ZN7WorkerBD0Ev:0000000000000010 .L0 
     /tmp/ccPIzBZ4.s:144    .text._ZN7WorkerBD0Ev:0000000000000010 .L0 
     /tmp/ccPIzBZ4.s:146    .text._ZN7WorkerBD0Ev:0000000000000014 .L0 
     /tmp/ccPIzBZ4.s:152    .text._ZN7WorkerBD0Ev:0000000000000018 .L0 
     /tmp/ccPIzBZ4.s:162    .text._ZN7WorkerBD0Ev:000000000000003c .L0 
GAS LISTING /tmp/ccPIzBZ4.s 			page 37


     /tmp/ccPIzBZ4.s:164    .text._ZN7WorkerBD0Ev:0000000000000040 .L0 
     /tmp/ccPIzBZ4.s:165    .text._ZN7WorkerBD0Ev:0000000000000040 .L0 
     /tmp/ccPIzBZ4.s:167    .text._ZN7WorkerBD0Ev:0000000000000044 .L0 
     /tmp/ccPIzBZ4.s:170    .text._ZN7WorkerBD0Ev:0000000000000048 .L0 
     /tmp/ccPIzBZ4.s:172    .text._ZN7WorkerBD0Ev:000000000000004c .L0 
     /tmp/ccPIzBZ4.s:179    .text._ZN7WorkerCD2Ev:0000000000000000 _ZN7WorkerCD2Ev
     /tmp/ccPIzBZ4.s:182    .text._ZN7WorkerCD2Ev:0000000000000000 .L0 
     /tmp/ccPIzBZ4.s:184    .text._ZN7WorkerCD2Ev:0000000000000000 .L0 
     /tmp/ccPIzBZ4.s:185    .text._ZN7WorkerCD2Ev:0000000000000004 .L0 
     /tmp/ccPIzBZ4.s:188    .text._ZN7WorkerCD2Ev:000000000000000c .L0 
     /tmp/ccPIzBZ4.s:189    .text._ZN7WorkerCD2Ev:000000000000000c .L0 
     /tmp/ccPIzBZ4.s:191    .text._ZN7WorkerCD2Ev:0000000000000010 .L0 
     /tmp/ccPIzBZ4.s:1487   .data.rel.ro.local._ZTV7WorkerC:0000000000000000 _ZTV7WorkerC
     /tmp/ccPIzBZ4.s:194    .text._ZN7WorkerCD2Ev:0000000000000010 .L0 
     /tmp/ccPIzBZ4.s:200    .text._ZN7WorkerCD2Ev:0000000000000028 .L0 
     /tmp/ccPIzBZ4.s:202    .text._ZN7WorkerCD2Ev:000000000000002c .L0 
     /tmp/ccPIzBZ4.s:203    .text._ZN7WorkerCD2Ev:000000000000002c .L0 
     /tmp/ccPIzBZ4.s:205    .text._ZN7WorkerCD2Ev:0000000000000030 .L0 
     /tmp/ccPIzBZ4.s:207    .text._ZN7WorkerCD2Ev:0000000000000034 .L0 
     /tmp/ccPIzBZ4.s:179    .text._ZN7WorkerCD2Ev:0000000000000000 _ZN7WorkerCD1Ev
     /tmp/ccPIzBZ4.s:216    .text._ZN7WorkerCD0Ev:0000000000000000 _ZN7WorkerCD0Ev
     /tmp/ccPIzBZ4.s:219    .text._ZN7WorkerCD0Ev:0000000000000000 .L0 
     /tmp/ccPIzBZ4.s:221    .text._ZN7WorkerCD0Ev:0000000000000000 .L0 
     /tmp/ccPIzBZ4.s:222    .text._ZN7WorkerCD0Ev:0000000000000004 .L0 
     /tmp/ccPIzBZ4.s:226    .text._ZN7WorkerCD0Ev:0000000000000010 .L0 
     /tmp/ccPIzBZ4.s:227    .text._ZN7WorkerCD0Ev:0000000000000010 .L0 
     /tmp/ccPIzBZ4.s:228    .text._ZN7WorkerCD0Ev:0000000000000010 .L0 
     /tmp/ccPIzBZ4.s:230    .text._ZN7WorkerCD0Ev:0000000000000014 .L0 
     /tmp/ccPIzBZ4.s:236    .text._ZN7WorkerCD0Ev:0000000000000018 .L0 
     /tmp/ccPIzBZ4.s:246    .text._ZN7WorkerCD0Ev:000000000000003c .L0 
     /tmp/ccPIzBZ4.s:248    .text._ZN7WorkerCD0Ev:0000000000000040 .L0 
     /tmp/ccPIzBZ4.s:249    .text._ZN7WorkerCD0Ev:0000000000000040 .L0 
     /tmp/ccPIzBZ4.s:251    .text._ZN7WorkerCD0Ev:0000000000000044 .L0 
     /tmp/ccPIzBZ4.s:254    .text._ZN7WorkerCD0Ev:0000000000000048 .L0 
     /tmp/ccPIzBZ4.s:256    .text._ZN7WorkerCD0Ev:000000000000004c .L0 
     /tmp/ccPIzBZ4.s:263    .text._ZN7WorkerDD2Ev:0000000000000000 _ZN7WorkerDD2Ev
     /tmp/ccPIzBZ4.s:266    .text._ZN7WorkerDD2Ev:0000000000000000 .L0 
     /tmp/ccPIzBZ4.s:268    .text._ZN7WorkerDD2Ev:0000000000000000 .L0 
     /tmp/ccPIzBZ4.s:269    .text._ZN7WorkerDD2Ev:0000000000000004 .L0 
     /tmp/ccPIzBZ4.s:272    .text._ZN7WorkerDD2Ev:000000000000000c .L0 
     /tmp/ccPIzBZ4.s:273    .text._ZN7WorkerDD2Ev:000000000000000c .L0 
     /tmp/ccPIzBZ4.s:275    .text._ZN7WorkerDD2Ev:0000000000000010 .L0 
     /tmp/ccPIzBZ4.s:1498   .data.rel.ro.local._ZTV7WorkerD:0000000000000000 _ZTV7WorkerD
     /tmp/ccPIzBZ4.s:278    .text._ZN7WorkerDD2Ev:0000000000000010 .L0 
     /tmp/ccPIzBZ4.s:284    .text._ZN7WorkerDD2Ev:0000000000000028 .L0 
     /tmp/ccPIzBZ4.s:286    .text._ZN7WorkerDD2Ev:000000000000002c .L0 
     /tmp/ccPIzBZ4.s:287    .text._ZN7WorkerDD2Ev:000000000000002c .L0 
     /tmp/ccPIzBZ4.s:289    .text._ZN7WorkerDD2Ev:0000000000000030 .L0 
     /tmp/ccPIzBZ4.s:291    .text._ZN7WorkerDD2Ev:0000000000000034 .L0 
     /tmp/ccPIzBZ4.s:263    .text._ZN7WorkerDD2Ev:0000000000000000 _ZN7WorkerDD1Ev
     /tmp/ccPIzBZ4.s:300    .text._ZN7WorkerDD0Ev:0000000000000000 _ZN7WorkerDD0Ev
     /tmp/ccPIzBZ4.s:303    .text._ZN7WorkerDD0Ev:0000000000000000 .L0 
     /tmp/ccPIzBZ4.s:305    .text._ZN7WorkerDD0Ev:0000000000000000 .L0 
     /tmp/ccPIzBZ4.s:306    .text._ZN7WorkerDD0Ev:0000000000000004 .L0 
     /tmp/ccPIzBZ4.s:310    .text._ZN7WorkerDD0Ev:0000000000000010 .L0 
     /tmp/ccPIzBZ4.s:311    .text._ZN7WorkerDD0Ev:0000000000000010 .L0 
     /tmp/ccPIzBZ4.s:312    .text._ZN7WorkerDD0Ev:0000000000000010 .L0 
GAS LISTING /tmp/ccPIzBZ4.s 			page 38


     /tmp/ccPIzBZ4.s:314    .text._ZN7WorkerDD0Ev:0000000000000014 .L0 
     /tmp/ccPIzBZ4.s:320    .text._ZN7WorkerDD0Ev:0000000000000018 .L0 
     /tmp/ccPIzBZ4.s:330    .text._ZN7WorkerDD0Ev:000000000000003c .L0 
     /tmp/ccPIzBZ4.s:332    .text._ZN7WorkerDD0Ev:0000000000000040 .L0 
     /tmp/ccPIzBZ4.s:333    .text._ZN7WorkerDD0Ev:0000000000000040 .L0 
     /tmp/ccPIzBZ4.s:335    .text._ZN7WorkerDD0Ev:0000000000000044 .L0 
     /tmp/ccPIzBZ4.s:338    .text._ZN7WorkerDD0Ev:0000000000000048 .L0 
     /tmp/ccPIzBZ4.s:340    .text._ZN7WorkerDD0Ev:000000000000004c .L0 
     /tmp/ccPIzBZ4.s:347    .text:0000000000000000 _Z9fibonaccim
     /tmp/ccPIzBZ4.s:350    .text:0000000000000000 .L0 
     /tmp/ccPIzBZ4.s:352    .text:0000000000000000 .L0 
     /tmp/ccPIzBZ4.s:353    .text:0000000000000004 .L0 
     /tmp/ccPIzBZ4.s:358    .text:0000000000000014 .L0 
     /tmp/ccPIzBZ4.s:359    .text:0000000000000014 .L0 
     /tmp/ccPIzBZ4.s:360    .text:0000000000000014 .L0 
     /tmp/ccPIzBZ4.s:361    .text:0000000000000014 .L0 
     /tmp/ccPIzBZ4.s:363    .text:0000000000000018 .L0 
     /tmp/ccPIzBZ4.s:366    .text:000000000000001c .L0 
     /tmp/ccPIzBZ4.s:369    .text:0000000000000024 .L0 
     /tmp/ccPIzBZ4.s:370    .text:0000000000000024 .L0 
     /tmp/ccPIzBZ4.s:373    .text:000000000000002c .L0 
     /tmp/ccPIzBZ4.s:377    .text:0000000000000030 .L0 
     /tmp/ccPIzBZ4.s:378    .text:0000000000000030 .L0 
     /tmp/ccPIzBZ4.s:383    .text:0000000000000040 .L0 
     /tmp/ccPIzBZ4.s:387    .text:000000000000004c .L0 
     /tmp/ccPIzBZ4.s:390    .text:0000000000000050 .L0 
     /tmp/ccPIzBZ4.s:391    .text:0000000000000054 .L0 
     /tmp/ccPIzBZ4.s:392    .text:0000000000000054 .L0 
     /tmp/ccPIzBZ4.s:394    .text:0000000000000058 .L0 
     /tmp/ccPIzBZ4.s:395    .text:0000000000000058 .L0 
     /tmp/ccPIzBZ4.s:397    .text:000000000000005c .L0 
     /tmp/ccPIzBZ4.s:400    .text:0000000000000060 .L0 
     /tmp/ccPIzBZ4.s:402    .text:0000000000000064 .L0 
     /tmp/ccPIzBZ4.s:406    .text:0000000000000068 .L0 
     /tmp/ccPIzBZ4.s:408    .text:0000000000000068 .L0 
     /tmp/ccPIzBZ4.s:409    .text:0000000000000068 .L0 
     /tmp/ccPIzBZ4.s:412    .text:0000000000000074 .L0 
     /tmp/ccPIzBZ4.s:429    .text:0000000000000074 _ZN7WorkerA11workerBodyAEPv
     /tmp/ccPIzBZ4.s:432    .text:0000000000000074 .L0 
     /tmp/ccPIzBZ4.s:434    .text:0000000000000074 .L0 
     /tmp/ccPIzBZ4.s:435    .text:0000000000000078 .L0 
     /tmp/ccPIzBZ4.s:440    .text:0000000000000088 .L0 
     /tmp/ccPIzBZ4.s:441    .text:0000000000000088 .L0 
     /tmp/ccPIzBZ4.s:442    .text:0000000000000088 .L0 
     /tmp/ccPIzBZ4.s:443    .text:0000000000000088 .L0 
     /tmp/ccPIzBZ4.s:445    .text:000000000000008c .L0 
     /tmp/ccPIzBZ4.s:447    .text:000000000000008c .L0 
     /tmp/ccPIzBZ4.s:448    .text:000000000000008c .L0 
     /tmp/ccPIzBZ4.s:454    .text:000000000000009c .L0 
     /tmp/ccPIzBZ4.s:455    .text:000000000000009c .L0 
     /tmp/ccPIzBZ4.s:463    .text:00000000000000a4 .L0 
     /tmp/ccPIzBZ4.s:464    .text:00000000000000a4 .L0 
     /tmp/ccPIzBZ4.s:468    .text:00000000000000ac .L0 
     /tmp/ccPIzBZ4.s:472    .text:00000000000000b0 .L0 
     /tmp/ccPIzBZ4.s:478    .text:00000000000000bc .L0 
     /tmp/ccPIzBZ4.s:482    .text:00000000000000c0 .L0 
     /tmp/ccPIzBZ4.s:486    .text:00000000000000cc .L0 
GAS LISTING /tmp/ccPIzBZ4.s 			page 39


     /tmp/ccPIzBZ4.s:496    .text:00000000000000d4 .L0 
     /tmp/ccPIzBZ4.s:500    .text:00000000000000d8 .L0 
     /tmp/ccPIzBZ4.s:504    .text:00000000000000e0 .L0 
     /tmp/ccPIzBZ4.s:505    .text:00000000000000e0 .L0 
     /tmp/ccPIzBZ4.s:509    .text:00000000000000f0 .L0 
     /tmp/ccPIzBZ4.s:510    .text:00000000000000f0 .L0 
     /tmp/ccPIzBZ4.s:516    .text:0000000000000104 .L0 
     /tmp/ccPIzBZ4.s:517    .text:0000000000000104 .L0 
     /tmp/ccPIzBZ4.s:522    .text:0000000000000114 .L0 
     /tmp/ccPIzBZ4.s:523    .text:0000000000000114 .L0 
     /tmp/ccPIzBZ4.s:531    .text:000000000000011c .L0 
     /tmp/ccPIzBZ4.s:532    .text:000000000000011c .L0 
     /tmp/ccPIzBZ4.s:536    .text:000000000000012c .L0 
     /tmp/ccPIzBZ4.s:537    .text:000000000000012c .L0 
     /tmp/ccPIzBZ4.s:540    .text:0000000000000138 .L0 
     /tmp/ccPIzBZ4.s:541    .text:000000000000013c .L0 
     /tmp/ccPIzBZ4.s:543    .text:0000000000000140 .L0 
     /tmp/ccPIzBZ4.s:544    .text:0000000000000140 .L0 
     /tmp/ccPIzBZ4.s:546    .text:0000000000000144 .L0 
     /tmp/ccPIzBZ4.s:548    .text:0000000000000148 .L0 
     /tmp/ccPIzBZ4.s:551    .text:000000000000014c .L0 
     /tmp/ccPIzBZ4.s:553    .text:0000000000000150 .L0 
     /tmp/ccPIzBZ4.s:560    .text._ZN7WorkerA3runEv:0000000000000000 _ZN7WorkerA3runEv
     /tmp/ccPIzBZ4.s:563    .text._ZN7WorkerA3runEv:0000000000000000 .L0 
     /tmp/ccPIzBZ4.s:565    .text._ZN7WorkerA3runEv:0000000000000000 .L0 
     /tmp/ccPIzBZ4.s:566    .text._ZN7WorkerA3runEv:0000000000000004 .L0 
     /tmp/ccPIzBZ4.s:569    .text._ZN7WorkerA3runEv:000000000000000c .L0 
     /tmp/ccPIzBZ4.s:570    .text._ZN7WorkerA3runEv:000000000000000c .L0 
     /tmp/ccPIzBZ4.s:572    .text._ZN7WorkerA3runEv:0000000000000010 .L0 
     /tmp/ccPIzBZ4.s:574    .text._ZN7WorkerA3runEv:0000000000000010 .L0 
     /tmp/ccPIzBZ4.s:575    .text._ZN7WorkerA3runEv:0000000000000010 .L0 
     /tmp/ccPIzBZ4.s:579    .text._ZN7WorkerA3runEv:000000000000001c .L0 
     /tmp/ccPIzBZ4.s:580    .text._ZN7WorkerA3runEv:0000000000000020 .L0 
     /tmp/ccPIzBZ4.s:582    .text._ZN7WorkerA3runEv:0000000000000024 .L0 
     /tmp/ccPIzBZ4.s:583    .text._ZN7WorkerA3runEv:0000000000000024 .L0 
     /tmp/ccPIzBZ4.s:585    .text._ZN7WorkerA3runEv:0000000000000028 .L0 
     /tmp/ccPIzBZ4.s:587    .text._ZN7WorkerA3runEv:000000000000002c .L0 
     /tmp/ccPIzBZ4.s:601    .text:0000000000000150 _ZN7WorkerB11workerBodyBEPv
     /tmp/ccPIzBZ4.s:604    .text:0000000000000150 .L0 
     /tmp/ccPIzBZ4.s:606    .text:0000000000000150 .L0 
     /tmp/ccPIzBZ4.s:607    .text:0000000000000154 .L0 
     /tmp/ccPIzBZ4.s:612    .text:0000000000000164 .L0 
     /tmp/ccPIzBZ4.s:613    .text:0000000000000164 .L0 
     /tmp/ccPIzBZ4.s:614    .text:0000000000000164 .L0 
     /tmp/ccPIzBZ4.s:615    .text:0000000000000164 .L0 
     /tmp/ccPIzBZ4.s:617    .text:0000000000000168 .L0 
     /tmp/ccPIzBZ4.s:619    .text:0000000000000168 .L0 
     /tmp/ccPIzBZ4.s:620    .text:0000000000000168 .L0 
     /tmp/ccPIzBZ4.s:626    .text:0000000000000178 .L0 
     /tmp/ccPIzBZ4.s:627    .text:0000000000000178 .L0 
     /tmp/ccPIzBZ4.s:635    .text:0000000000000180 .L0 
     /tmp/ccPIzBZ4.s:636    .text:0000000000000180 .L0 
     /tmp/ccPIzBZ4.s:640    .text:0000000000000188 .L0 
     /tmp/ccPIzBZ4.s:644    .text:000000000000018c .L0 
     /tmp/ccPIzBZ4.s:650    .text:0000000000000198 .L0 
     /tmp/ccPIzBZ4.s:654    .text:000000000000019c .L0 
     /tmp/ccPIzBZ4.s:658    .text:00000000000001a8 .L0 
GAS LISTING /tmp/ccPIzBZ4.s 			page 40


     /tmp/ccPIzBZ4.s:668    .text:00000000000001b0 .L0 
     /tmp/ccPIzBZ4.s:672    .text:00000000000001b4 .L0 
     /tmp/ccPIzBZ4.s:676    .text:00000000000001bc .L0 
     /tmp/ccPIzBZ4.s:677    .text:00000000000001bc .L0 
     /tmp/ccPIzBZ4.s:681    .text:00000000000001cc .L0 
     /tmp/ccPIzBZ4.s:682    .text:00000000000001cc .L0 
     /tmp/ccPIzBZ4.s:688    .text:00000000000001e0 .L0 
     /tmp/ccPIzBZ4.s:689    .text:00000000000001e0 .L0 
     /tmp/ccPIzBZ4.s:694    .text:00000000000001f0 .L0 
     /tmp/ccPIzBZ4.s:695    .text:00000000000001f0 .L0 
     /tmp/ccPIzBZ4.s:703    .text:00000000000001f8 .L0 
     /tmp/ccPIzBZ4.s:704    .text:00000000000001f8 .L0 
     /tmp/ccPIzBZ4.s:708    .text:0000000000000208 .L0 
     /tmp/ccPIzBZ4.s:709    .text:0000000000000208 .L0 
     /tmp/ccPIzBZ4.s:712    .text:0000000000000214 .L0 
     /tmp/ccPIzBZ4.s:713    .text:0000000000000214 .L0 
     /tmp/ccPIzBZ4.s:716    .text:000000000000021c .L0 
     /tmp/ccPIzBZ4.s:717    .text:0000000000000220 .L0 
     /tmp/ccPIzBZ4.s:719    .text:0000000000000224 .L0 
     /tmp/ccPIzBZ4.s:720    .text:0000000000000224 .L0 
     /tmp/ccPIzBZ4.s:722    .text:0000000000000228 .L0 
     /tmp/ccPIzBZ4.s:724    .text:000000000000022c .L0 
     /tmp/ccPIzBZ4.s:727    .text:0000000000000230 .L0 
     /tmp/ccPIzBZ4.s:729    .text:0000000000000234 .L0 
     /tmp/ccPIzBZ4.s:736    .text._ZN7WorkerB3runEv:0000000000000000 _ZN7WorkerB3runEv
     /tmp/ccPIzBZ4.s:739    .text._ZN7WorkerB3runEv:0000000000000000 .L0 
     /tmp/ccPIzBZ4.s:741    .text._ZN7WorkerB3runEv:0000000000000000 .L0 
     /tmp/ccPIzBZ4.s:742    .text._ZN7WorkerB3runEv:0000000000000004 .L0 
     /tmp/ccPIzBZ4.s:745    .text._ZN7WorkerB3runEv:000000000000000c .L0 
     /tmp/ccPIzBZ4.s:746    .text._ZN7WorkerB3runEv:000000000000000c .L0 
     /tmp/ccPIzBZ4.s:748    .text._ZN7WorkerB3runEv:0000000000000010 .L0 
     /tmp/ccPIzBZ4.s:750    .text._ZN7WorkerB3runEv:0000000000000010 .L0 
     /tmp/ccPIzBZ4.s:751    .text._ZN7WorkerB3runEv:0000000000000010 .L0 
     /tmp/ccPIzBZ4.s:755    .text._ZN7WorkerB3runEv:000000000000001c .L0 
     /tmp/ccPIzBZ4.s:756    .text._ZN7WorkerB3runEv:0000000000000020 .L0 
     /tmp/ccPIzBZ4.s:758    .text._ZN7WorkerB3runEv:0000000000000024 .L0 
     /tmp/ccPIzBZ4.s:759    .text._ZN7WorkerB3runEv:0000000000000024 .L0 
     /tmp/ccPIzBZ4.s:761    .text._ZN7WorkerB3runEv:0000000000000028 .L0 
     /tmp/ccPIzBZ4.s:763    .text._ZN7WorkerB3runEv:000000000000002c .L0 
     /tmp/ccPIzBZ4.s:786    .text:0000000000000234 _ZN7WorkerC11workerBodyCEPv
     /tmp/ccPIzBZ4.s:789    .text:0000000000000234 .L0 
     /tmp/ccPIzBZ4.s:791    .text:0000000000000234 .L0 
     /tmp/ccPIzBZ4.s:792    .text:0000000000000238 .L0 
     /tmp/ccPIzBZ4.s:797    .text:0000000000000248 .L0 
     /tmp/ccPIzBZ4.s:798    .text:0000000000000248 .L0 
     /tmp/ccPIzBZ4.s:799    .text:0000000000000248 .L0 
     /tmp/ccPIzBZ4.s:800    .text:0000000000000248 .L0 
     /tmp/ccPIzBZ4.s:802    .text:000000000000024c .L0 
     /tmp/ccPIzBZ4.s:805    .text:000000000000024c .L0 
     /tmp/ccPIzBZ4.s:806    .text:000000000000024c .L0 
     /tmp/ccPIzBZ4.s:811    .text:0000000000000254 .L0 
     /tmp/ccPIzBZ4.s:812    .text:0000000000000254 .L0 
     /tmp/ccPIzBZ4.s:816    .text:0000000000000264 .L0 
     /tmp/ccPIzBZ4.s:817    .text:0000000000000264 .L0 
     /tmp/ccPIzBZ4.s:823    .text:0000000000000278 .L0 
     /tmp/ccPIzBZ4.s:824    .text:0000000000000278 .L0 
     /tmp/ccPIzBZ4.s:828    .text:0000000000000288 .L0 
GAS LISTING /tmp/ccPIzBZ4.s 			page 41


     /tmp/ccPIzBZ4.s:834    .text:0000000000000290 .L0 
     /tmp/ccPIzBZ4.s:835    .text:0000000000000290 .L0 
     /tmp/ccPIzBZ4.s:838    .text:0000000000000298 .L0 
     /tmp/ccPIzBZ4.s:839    .text:0000000000000298 .L0 
     /tmp/ccPIzBZ4.s:843    .text:00000000000002a8 .L0 
src/../h/Threads_CPP_API_test.hpp:94     .text:00000000000002a8 .L0 
     /tmp/ccPIzBZ4.s:849    .text:00000000000002ac .L0 
     /tmp/ccPIzBZ4.s:851    .text:00000000000002ac .L0 
     /tmp/ccPIzBZ4.s:854    .text:00000000000002b4 .L0 
     /tmp/ccPIzBZ4.s:855    .text:00000000000002b4 .L0 
src/../h/Threads_CPP_API_test.hpp:98     .text:00000000000002b4 .L0 
     /tmp/ccPIzBZ4.s:862    .text:00000000000002b8 .L0 
     /tmp/ccPIzBZ4.s:864    .text:00000000000002b8 .L0 
     /tmp/ccPIzBZ4.s:868    .text:00000000000002c8 .L0 
     /tmp/ccPIzBZ4.s:869    .text:00000000000002c8 .L0 
     /tmp/ccPIzBZ4.s:875    .text:00000000000002dc .L0 
     /tmp/ccPIzBZ4.s:876    .text:00000000000002dc .L0 
     /tmp/ccPIzBZ4.s:880    .text:00000000000002ec .L0 
     /tmp/ccPIzBZ4.s:881    .text:00000000000002ec .L0 
     /tmp/ccPIzBZ4.s:887    .text:00000000000002fc .L0 
     /tmp/ccPIzBZ4.s:888    .text:00000000000002fc .L0 
     /tmp/ccPIzBZ4.s:893    .text:000000000000030c .L0 
     /tmp/ccPIzBZ4.s:894    .text:000000000000030c .L0 
     /tmp/ccPIzBZ4.s:900    .text:0000000000000320 .L0 
     /tmp/ccPIzBZ4.s:901    .text:0000000000000320 .L0 
     /tmp/ccPIzBZ4.s:907    .text:0000000000000334 .L0 
     /tmp/ccPIzBZ4.s:908    .text:0000000000000334 .L0 
     /tmp/ccPIzBZ4.s:912    .text:0000000000000344 .L0 
     /tmp/ccPIzBZ4.s:913    .text:0000000000000344 .L0 
     /tmp/ccPIzBZ4.s:919    .text:0000000000000358 .L0 
     /tmp/ccPIzBZ4.s:920    .text:0000000000000358 .L0 
     /tmp/ccPIzBZ4.s:924    .text:0000000000000368 .L0 
     /tmp/ccPIzBZ4.s:930    .text:0000000000000370 .L0 
     /tmp/ccPIzBZ4.s:931    .text:0000000000000370 .L0 
     /tmp/ccPIzBZ4.s:934    .text:0000000000000378 .L0 
     /tmp/ccPIzBZ4.s:935    .text:0000000000000378 .L0 
     /tmp/ccPIzBZ4.s:939    .text:0000000000000388 .L0 
     /tmp/ccPIzBZ4.s:940    .text:0000000000000388 .L0 
     /tmp/ccPIzBZ4.s:943    .text:0000000000000394 .L0 
     /tmp/ccPIzBZ4.s:944    .text:0000000000000398 .L0 
     /tmp/ccPIzBZ4.s:946    .text:000000000000039c .L0 
     /tmp/ccPIzBZ4.s:947    .text:000000000000039c .L0 
     /tmp/ccPIzBZ4.s:949    .text:00000000000003a0 .L0 
     /tmp/ccPIzBZ4.s:952    .text:00000000000003a4 .L0 
     /tmp/ccPIzBZ4.s:955    .text:00000000000003a8 .L0 
     /tmp/ccPIzBZ4.s:957    .text:00000000000003ac .L0 
     /tmp/ccPIzBZ4.s:964    .text._ZN7WorkerC3runEv:0000000000000000 _ZN7WorkerC3runEv
     /tmp/ccPIzBZ4.s:967    .text._ZN7WorkerC3runEv:0000000000000000 .L0 
     /tmp/ccPIzBZ4.s:969    .text._ZN7WorkerC3runEv:0000000000000000 .L0 
     /tmp/ccPIzBZ4.s:970    .text._ZN7WorkerC3runEv:0000000000000004 .L0 
     /tmp/ccPIzBZ4.s:973    .text._ZN7WorkerC3runEv:000000000000000c .L0 
     /tmp/ccPIzBZ4.s:974    .text._ZN7WorkerC3runEv:000000000000000c .L0 
     /tmp/ccPIzBZ4.s:976    .text._ZN7WorkerC3runEv:0000000000000010 .L0 
     /tmp/ccPIzBZ4.s:978    .text._ZN7WorkerC3runEv:0000000000000010 .L0 
     /tmp/ccPIzBZ4.s:979    .text._ZN7WorkerC3runEv:0000000000000010 .L0 
     /tmp/ccPIzBZ4.s:983    .text._ZN7WorkerC3runEv:000000000000001c .L0 
     /tmp/ccPIzBZ4.s:984    .text._ZN7WorkerC3runEv:0000000000000020 .L0 
GAS LISTING /tmp/ccPIzBZ4.s 			page 42


     /tmp/ccPIzBZ4.s:986    .text._ZN7WorkerC3runEv:0000000000000024 .L0 
     /tmp/ccPIzBZ4.s:987    .text._ZN7WorkerC3runEv:0000000000000024 .L0 
     /tmp/ccPIzBZ4.s:989    .text._ZN7WorkerC3runEv:0000000000000028 .L0 
     /tmp/ccPIzBZ4.s:991    .text._ZN7WorkerC3runEv:000000000000002c .L0 
     /tmp/ccPIzBZ4.s:1011   .text:00000000000003ac _ZN7WorkerD11workerBodyDEPv
     /tmp/ccPIzBZ4.s:1014   .text:00000000000003ac .L0 
     /tmp/ccPIzBZ4.s:1016   .text:00000000000003ac .L0 
     /tmp/ccPIzBZ4.s:1017   .text:00000000000003b0 .L0 
     /tmp/ccPIzBZ4.s:1022   .text:00000000000003c0 .L0 
     /tmp/ccPIzBZ4.s:1023   .text:00000000000003c0 .L0 
     /tmp/ccPIzBZ4.s:1024   .text:00000000000003c0 .L0 
     /tmp/ccPIzBZ4.s:1025   .text:00000000000003c0 .L0 
     /tmp/ccPIzBZ4.s:1027   .text:00000000000003c4 .L0 
     /tmp/ccPIzBZ4.s:1030   .text:00000000000003c4 .L0 
     /tmp/ccPIzBZ4.s:1031   .text:00000000000003c4 .L0 
     /tmp/ccPIzBZ4.s:1036   .text:00000000000003cc .L0 
     /tmp/ccPIzBZ4.s:1037   .text:00000000000003cc .L0 
     /tmp/ccPIzBZ4.s:1041   .text:00000000000003dc .L0 
     /tmp/ccPIzBZ4.s:1042   .text:00000000000003dc .L0 
     /tmp/ccPIzBZ4.s:1048   .text:00000000000003f0 .L0 
     /tmp/ccPIzBZ4.s:1049   .text:00000000000003f0 .L0 
     /tmp/ccPIzBZ4.s:1053   .text:0000000000000400 .L0 
     /tmp/ccPIzBZ4.s:1059   .text:0000000000000408 .L0 
     /tmp/ccPIzBZ4.s:1060   .text:0000000000000408 .L0 
     /tmp/ccPIzBZ4.s:1063   .text:0000000000000410 .L0 
     /tmp/ccPIzBZ4.s:1064   .text:0000000000000410 .L0 
     /tmp/ccPIzBZ4.s:1068   .text:0000000000000420 .L0 
src/../h/Threads_CPP_API_test.hpp:121    .text:0000000000000420 .L0 
     /tmp/ccPIzBZ4.s:1074   .text:0000000000000424 .L0 
     /tmp/ccPIzBZ4.s:1076   .text:0000000000000424 .L0 
     /tmp/ccPIzBZ4.s:1079   .text:000000000000042c .L0 
     /tmp/ccPIzBZ4.s:1080   .text:000000000000042c .L0 
     /tmp/ccPIzBZ4.s:1086   .text:000000000000043c .L0 
     /tmp/ccPIzBZ4.s:1087   .text:000000000000043c .L0 
     /tmp/ccPIzBZ4.s:1092   .text:000000000000044c .L0 
     /tmp/ccPIzBZ4.s:1093   .text:000000000000044c .L0 
     /tmp/ccPIzBZ4.s:1099   .text:0000000000000460 .L0 
     /tmp/ccPIzBZ4.s:1100   .text:0000000000000460 .L0 
     /tmp/ccPIzBZ4.s:1106   .text:0000000000000474 .L0 
     /tmp/ccPIzBZ4.s:1107   .text:0000000000000474 .L0 
     /tmp/ccPIzBZ4.s:1111   .text:0000000000000484 .L0 
     /tmp/ccPIzBZ4.s:1112   .text:0000000000000484 .L0 
     /tmp/ccPIzBZ4.s:1118   .text:0000000000000498 .L0 
     /tmp/ccPIzBZ4.s:1119   .text:0000000000000498 .L0 
     /tmp/ccPIzBZ4.s:1123   .text:00000000000004a8 .L0 
     /tmp/ccPIzBZ4.s:1129   .text:00000000000004b0 .L0 
     /tmp/ccPIzBZ4.s:1130   .text:00000000000004b0 .L0 
     /tmp/ccPIzBZ4.s:1133   .text:00000000000004b8 .L0 
     /tmp/ccPIzBZ4.s:1134   .text:00000000000004b8 .L0 
     /tmp/ccPIzBZ4.s:1138   .text:00000000000004c8 .L0 
     /tmp/ccPIzBZ4.s:1139   .text:00000000000004c8 .L0 
     /tmp/ccPIzBZ4.s:1142   .text:00000000000004d4 .L0 
     /tmp/ccPIzBZ4.s:1143   .text:00000000000004d4 .L0 
     /tmp/ccPIzBZ4.s:1146   .text:00000000000004dc .L0 
     /tmp/ccPIzBZ4.s:1147   .text:00000000000004e0 .L0 
     /tmp/ccPIzBZ4.s:1149   .text:00000000000004e4 .L0 
     /tmp/ccPIzBZ4.s:1150   .text:00000000000004e4 .L0 
GAS LISTING /tmp/ccPIzBZ4.s 			page 43


     /tmp/ccPIzBZ4.s:1152   .text:00000000000004e8 .L0 
     /tmp/ccPIzBZ4.s:1155   .text:00000000000004ec .L0 
     /tmp/ccPIzBZ4.s:1158   .text:00000000000004f0 .L0 
     /tmp/ccPIzBZ4.s:1160   .text:00000000000004f4 .L0 
     /tmp/ccPIzBZ4.s:1167   .text._ZN7WorkerD3runEv:0000000000000000 _ZN7WorkerD3runEv
     /tmp/ccPIzBZ4.s:1170   .text._ZN7WorkerD3runEv:0000000000000000 .L0 
     /tmp/ccPIzBZ4.s:1172   .text._ZN7WorkerD3runEv:0000000000000000 .L0 
     /tmp/ccPIzBZ4.s:1173   .text._ZN7WorkerD3runEv:0000000000000004 .L0 
     /tmp/ccPIzBZ4.s:1176   .text._ZN7WorkerD3runEv:000000000000000c .L0 
     /tmp/ccPIzBZ4.s:1177   .text._ZN7WorkerD3runEv:000000000000000c .L0 
     /tmp/ccPIzBZ4.s:1179   .text._ZN7WorkerD3runEv:0000000000000010 .L0 
     /tmp/ccPIzBZ4.s:1181   .text._ZN7WorkerD3runEv:0000000000000010 .L0 
     /tmp/ccPIzBZ4.s:1182   .text._ZN7WorkerD3runEv:0000000000000010 .L0 
     /tmp/ccPIzBZ4.s:1186   .text._ZN7WorkerD3runEv:000000000000001c .L0 
     /tmp/ccPIzBZ4.s:1187   .text._ZN7WorkerD3runEv:0000000000000020 .L0 
     /tmp/ccPIzBZ4.s:1189   .text._ZN7WorkerD3runEv:0000000000000024 .L0 
     /tmp/ccPIzBZ4.s:1190   .text._ZN7WorkerD3runEv:0000000000000024 .L0 
     /tmp/ccPIzBZ4.s:1192   .text._ZN7WorkerD3runEv:0000000000000028 .L0 
     /tmp/ccPIzBZ4.s:1194   .text._ZN7WorkerD3runEv:000000000000002c .L0 
     /tmp/ccPIzBZ4.s:1214   .text:00000000000004f4 _Z20Threads_CPP_API_testv
     /tmp/ccPIzBZ4.s:1217   .text:00000000000004f4 .L0 
     /tmp/ccPIzBZ4.s:1218   .text:00000000000004f4 .L0 
     /tmp/ccPIzBZ4.s:1219   .text:00000000000004f8 .L0 
     /tmp/ccPIzBZ4.s:1223   .text:0000000000000504 .L0 
     /tmp/ccPIzBZ4.s:1224   .text:0000000000000504 .L0 
     /tmp/ccPIzBZ4.s:1225   .text:0000000000000504 .L0 
     /tmp/ccPIzBZ4.s:1227   .text:0000000000000508 .L0 
     /tmp/ccPIzBZ4.s:1229   .text:0000000000000508 .L0 
     /tmp/ccPIzBZ4.s:1230   .text:0000000000000508 .L0 
     /tmp/ccPIzBZ4.s:1239   .text:0000000000000514 .L0 
     /tmp/ccPIzBZ4.s:1240   .text:0000000000000514 .L0 
     /tmp/ccPIzBZ4.s:1245   .text:0000000000000518 .L0 
     /tmp/ccPIzBZ4.s:1251   .text:0000000000000524 .L0 
     /tmp/ccPIzBZ4.s:1254   .text:0000000000000530 .L0 
     /tmp/ccPIzBZ4.s:1255   .text:0000000000000530 .L0 
     /tmp/ccPIzBZ4.s:1259   .text:0000000000000540 .L0 
     /tmp/ccPIzBZ4.s:1260   .text:0000000000000540 .L0 
     /tmp/ccPIzBZ4.s:1268   .text:000000000000054c .L0 
     /tmp/ccPIzBZ4.s:1269   .text:000000000000054c .L0 
     /tmp/ccPIzBZ4.s:1274   .text:0000000000000550 .L0 
     /tmp/ccPIzBZ4.s:1280   .text:000000000000055c .L0 
     /tmp/ccPIzBZ4.s:1282   .text:0000000000000560 .L0 
     /tmp/ccPIzBZ4.s:1283   .text:0000000000000560 .L0 
     /tmp/ccPIzBZ4.s:1287   .text:0000000000000570 .L0 
     /tmp/ccPIzBZ4.s:1288   .text:0000000000000570 .L0 
     /tmp/ccPIzBZ4.s:1296   .text:000000000000057c .L0 
     /tmp/ccPIzBZ4.s:1297   .text:000000000000057c .L0 
     /tmp/ccPIzBZ4.s:1302   .text:0000000000000580 .L0 
     /tmp/ccPIzBZ4.s:1308   .text:000000000000058c .L0 
     /tmp/ccPIzBZ4.s:1310   .text:0000000000000590 .L0 
     /tmp/ccPIzBZ4.s:1311   .text:0000000000000590 .L0 
     /tmp/ccPIzBZ4.s:1315   .text:00000000000005a0 .L0 
     /tmp/ccPIzBZ4.s:1316   .text:00000000000005a0 .L0 
     /tmp/ccPIzBZ4.s:1324   .text:00000000000005ac .L0 
     /tmp/ccPIzBZ4.s:1325   .text:00000000000005ac .L0 
     /tmp/ccPIzBZ4.s:1330   .text:00000000000005b0 .L0 
     /tmp/ccPIzBZ4.s:1336   .text:00000000000005bc .L0 
GAS LISTING /tmp/ccPIzBZ4.s 			page 44


     /tmp/ccPIzBZ4.s:1338   .text:00000000000005c0 .L0 
     /tmp/ccPIzBZ4.s:1339   .text:00000000000005c0 .L0 
     /tmp/ccPIzBZ4.s:1344   .text:00000000000005d0 .L0 
     /tmp/ccPIzBZ4.s:1345   .text:00000000000005d0 .L0 
     /tmp/ccPIzBZ4.s:1349   .text:00000000000005d4 .L0 
     /tmp/ccPIzBZ4.s:1352   .text:00000000000005dc .L0 
     /tmp/ccPIzBZ4.s:1353   .text:00000000000005dc .L0 
     /tmp/ccPIzBZ4.s:1357   .text:00000000000005ec .L0 
     /tmp/ccPIzBZ4.s:1361   .text:00000000000005f8 .L0 
     /tmp/ccPIzBZ4.s:1368   .text:0000000000000600 .L0 
     /tmp/ccPIzBZ4.s:1369   .text:0000000000000600 .L0 
     /tmp/ccPIzBZ4.s:1373   .text:0000000000000608 .L0 
     /tmp/ccPIzBZ4.s:1374   .text:0000000000000608 .L0 
     /tmp/ccPIzBZ4.s:1377   .text:0000000000000614 .L0 
     /tmp/ccPIzBZ4.s:1380   .text:0000000000000620 .L0 
     /tmp/ccPIzBZ4.s:1383   .text:000000000000062c .L0 
     /tmp/ccPIzBZ4.s:1387   .text:0000000000000638 .L0 
     /tmp/ccPIzBZ4.s:1393   .text:0000000000000644 .L0 
     /tmp/ccPIzBZ4.s:1397   .text:0000000000000648 .L0 
     /tmp/ccPIzBZ4.s:1400   .text:0000000000000654 .L0 
     /tmp/ccPIzBZ4.s:1403   .text:0000000000000658 .L0 
     /tmp/ccPIzBZ4.s:1404   .text:0000000000000658 .L0 
     /tmp/ccPIzBZ4.s:1406   .text:000000000000065c .L0 
     /tmp/ccPIzBZ4.s:1414   .text:000000000000066c .L0 
     /tmp/ccPIzBZ4.s:1415   .text:0000000000000670 .L0 
     /tmp/ccPIzBZ4.s:1417   .text:0000000000000674 .L0 
     /tmp/ccPIzBZ4.s:1418   .text:0000000000000674 .L0 
     /tmp/ccPIzBZ4.s:1420   .text:0000000000000678 .L0 
     /tmp/ccPIzBZ4.s:1423   .text:000000000000067c .L0 
     /tmp/ccPIzBZ4.s:1425   .text:0000000000000680 .L0 
     /tmp/ccPIzBZ4.s:1431   .text:0000000000000680 _Z8userMainv
     /tmp/ccPIzBZ4.s:1435   .text:0000000000000680 .L0 
     /tmp/ccPIzBZ4.s:1436   .text:0000000000000680 .L0 
     /tmp/ccPIzBZ4.s:1437   .text:0000000000000684 .L0 
     /tmp/ccPIzBZ4.s:1440   .text:000000000000068c .L0 
     /tmp/ccPIzBZ4.s:1441   .text:000000000000068c .L0 
     /tmp/ccPIzBZ4.s:1443   .text:0000000000000690 .L0 
     /tmp/ccPIzBZ4.s:1445   .text:0000000000000690 .L0 
     /tmp/ccPIzBZ4.s:1446   .text:0000000000000690 .L0 
     /tmp/ccPIzBZ4.s:1449   .text:0000000000000698 .L0 
     /tmp/ccPIzBZ4.s:1450   .text:000000000000069c .L0 
     /tmp/ccPIzBZ4.s:1452   .text:00000000000006a0 .L0 
     /tmp/ccPIzBZ4.s:1453   .text:00000000000006a0 .L0 
     /tmp/ccPIzBZ4.s:1455   .text:00000000000006a4 .L0 
     /tmp/ccPIzBZ4.s:1457   .text:00000000000006a8 .L0 
     /tmp/ccPIzBZ4.s:1530   .bss:0000000000000023 finishedD
     /tmp/ccPIzBZ4.s:1526   .bss:0000000000000022 finishedC
     /tmp/ccPIzBZ4.s:1522   .bss:0000000000000021 finishedB
     /tmp/ccPIzBZ4.s:1518   .bss:0000000000000020 finishedA
     /tmp/ccPIzBZ4.s:1514   .bss:0000000000000000 threads
     /tmp/ccPIzBZ4.s:1511   .bss:0000000000000000 .LANCHOR0
     /tmp/ccPIzBZ4.s:44     .text._ZN7WorkerAD2Ev:0000000000000034 .L0 
     /tmp/ccPIzBZ4.s:91     .text._ZN7WorkerAD0Ev:000000000000004c .L0 
     /tmp/ccPIzBZ4.s:128    .text._ZN7WorkerBD2Ev:0000000000000034 .L0 
     /tmp/ccPIzBZ4.s:175    .text._ZN7WorkerBD0Ev:000000000000004c .L0 
     /tmp/ccPIzBZ4.s:212    .text._ZN7WorkerCD2Ev:0000000000000034 .L0 
     /tmp/ccPIzBZ4.s:259    .text._ZN7WorkerCD0Ev:000000000000004c .L0 
GAS LISTING /tmp/ccPIzBZ4.s 			page 45


     /tmp/ccPIzBZ4.s:296    .text._ZN7WorkerDD2Ev:0000000000000034 .L0 
     /tmp/ccPIzBZ4.s:343    .text._ZN7WorkerDD0Ev:000000000000004c .L0 
     /tmp/ccPIzBZ4.s:1537   .text:00000000000006a8 .L0 
     /tmp/ccPIzBZ4.s:590    .text._ZN7WorkerA3runEv:000000000000002c .L0 
     /tmp/ccPIzBZ4.s:766    .text._ZN7WorkerB3runEv:000000000000002c .L0 
     /tmp/ccPIzBZ4.s:994    .text._ZN7WorkerC3runEv:000000000000002c .L0 
     /tmp/ccPIzBZ4.s:1197   .text._ZN7WorkerD3runEv:000000000000002c .L0 
     /tmp/ccPIzBZ4.s:448    .text:000000000000008c .L0 
     /tmp/ccPIzBZ4.s:417    .rodata.str1.8:0000000000000000 .LC0
     /tmp/ccPIzBZ4.s:505    .text:00000000000000e0 .L0 
     /tmp/ccPIzBZ4.s:420    .rodata.str1.8:0000000000000008 .LC1
     /tmp/ccPIzBZ4.s:517    .text:0000000000000104 .L0 
     /tmp/ccPIzBZ4.s:423    .rodata.str1.8:0000000000000010 .LC2
     /tmp/ccPIzBZ4.s:532    .text:000000000000011c .L0 
     /tmp/ccPIzBZ4.s:538    .text:0000000000000130 .L0 
     /tmp/ccPIzBZ4.s:620    .text:0000000000000168 .L0 
     /tmp/ccPIzBZ4.s:592    .rodata.str1.8:0000000000000020 .LC3
     /tmp/ccPIzBZ4.s:677    .text:00000000000001bc .L0 
     /tmp/ccPIzBZ4.s:689    .text:00000000000001e0 .L0 
     /tmp/ccPIzBZ4.s:595    .rodata.str1.8:0000000000000028 .LC4
     /tmp/ccPIzBZ4.s:704    .text:00000000000001f8 .L0 
     /tmp/ccPIzBZ4.s:710    .text:000000000000020c .L0 
     /tmp/ccPIzBZ4.s:768    .rodata.str1.8:0000000000000038 .LC5
     /tmp/ccPIzBZ4.s:812    .text:0000000000000254 .L0 
     /tmp/ccPIzBZ4.s:824    .text:0000000000000278 .L0 
     /tmp/ccPIzBZ4.s:771    .rodata.str1.8:0000000000000040 .LC6
     /tmp/ccPIzBZ4.s:839    .text:0000000000000298 .L0 
     /tmp/ccPIzBZ4.s:774    .rodata.str1.8:0000000000000050 .LC7
     /tmp/ccPIzBZ4.s:864    .text:00000000000002b8 .L0 
     /tmp/ccPIzBZ4.s:876    .text:00000000000002dc .L0 
     /tmp/ccPIzBZ4.s:777    .rodata.str1.8:0000000000000058 .LC8
     /tmp/ccPIzBZ4.s:888    .text:00000000000002fc .L0 
     /tmp/ccPIzBZ4.s:901    .text:0000000000000320 .L0 
     /tmp/ccPIzBZ4.s:908    .text:0000000000000334 .L0 
     /tmp/ccPIzBZ4.s:920    .text:0000000000000358 .L0 
     /tmp/ccPIzBZ4.s:780    .rodata.str1.8:0000000000000068 .LC9
     /tmp/ccPIzBZ4.s:935    .text:0000000000000378 .L0 
     /tmp/ccPIzBZ4.s:941    .text:000000000000038c .L0 
     /tmp/ccPIzBZ4.s:996    .rodata.str1.8:0000000000000078 .LC10
     /tmp/ccPIzBZ4.s:1037   .text:00000000000003cc .L0 
     /tmp/ccPIzBZ4.s:1049   .text:00000000000003f0 .L0 
     /tmp/ccPIzBZ4.s:999    .rodata.str1.8:0000000000000080 .LC11
     /tmp/ccPIzBZ4.s:1064   .text:0000000000000410 .L0 
     /tmp/ccPIzBZ4.s:1002   .rodata.str1.8:0000000000000090 .LC12
     /tmp/ccPIzBZ4.s:1087   .text:000000000000043c .L0 
     /tmp/ccPIzBZ4.s:1100   .text:0000000000000460 .L0 
     /tmp/ccPIzBZ4.s:1107   .text:0000000000000474 .L0 
     /tmp/ccPIzBZ4.s:1119   .text:0000000000000498 .L0 
     /tmp/ccPIzBZ4.s:1005   .rodata.str1.8:00000000000000a0 .LC13
     /tmp/ccPIzBZ4.s:1134   .text:00000000000004b8 .L0 
     /tmp/ccPIzBZ4.s:1140   .text:00000000000004cc .L0 
     /tmp/ccPIzBZ4.s:1245   .text:0000000000000518 .L0 
     /tmp/ccPIzBZ4.s:1251   .text:0000000000000524 .L0 
     /tmp/ccPIzBZ4.s:1199   .rodata.str1.8:00000000000000b0 .LC14
     /tmp/ccPIzBZ4.s:1255   .text:0000000000000530 .L0 
     /tmp/ccPIzBZ4.s:1274   .text:0000000000000550 .L0 
     /tmp/ccPIzBZ4.s:1202   .rodata.str1.8:00000000000000c8 .LC15
GAS LISTING /tmp/ccPIzBZ4.s 			page 46


     /tmp/ccPIzBZ4.s:1283   .text:0000000000000560 .L0 
     /tmp/ccPIzBZ4.s:1302   .text:0000000000000580 .L0 
     /tmp/ccPIzBZ4.s:1205   .rodata.str1.8:00000000000000e0 .LC16
     /tmp/ccPIzBZ4.s:1311   .text:0000000000000590 .L0 
     /tmp/ccPIzBZ4.s:1330   .text:00000000000005b0 .L0 
     /tmp/ccPIzBZ4.s:1208   .rodata.str1.8:00000000000000f8 .LC17
     /tmp/ccPIzBZ4.s:1339   .text:00000000000005c0 .L0 
     /tmp/ccPIzBZ4.s:1354   .text:00000000000005e0 .L0 
     /tmp/ccPIzBZ4.s:1374   .text:0000000000000608 .L0 
     /tmp/ccPIzBZ4.s:1377   .text:0000000000000614 .L0 
     /tmp/ccPIzBZ4.s:1380   .text:0000000000000620 .L0 
     /tmp/ccPIzBZ4.s:1383   .text:000000000000062c .L0 
     /tmp/ccPIzBZ4.s:1387   .text:0000000000000638 .L0 
     /tmp/ccPIzBZ4.s:1397   .text:0000000000000648 .L0 
     /tmp/ccPIzBZ4.s:388    .text:0000000000000050 .L17
     /tmp/ccPIzBZ4.s:405    .text:0000000000000068 .L22
     /tmp/ccPIzBZ4.s:375    .text:0000000000000030 .L19
     /tmp/ccPIzBZ4.s:498    .text:00000000000000d8 .L29
     /tmp/ccPIzBZ4.s:490    .text:00000000000000d4 .L25
     /tmp/ccPIzBZ4.s:458    .text:00000000000000a4 .L26
     /tmp/ccPIzBZ4.s:479    .text:00000000000000c0 .L27
     /tmp/ccPIzBZ4.s:526    .text:000000000000011c .L24
     /tmp/ccPIzBZ4.s:470    .text:00000000000000b0 .L28
     /tmp/ccPIzBZ4.s:670    .text:00000000000001b4 .L39
     /tmp/ccPIzBZ4.s:662    .text:00000000000001b0 .L35
     /tmp/ccPIzBZ4.s:630    .text:0000000000000180 .L36
     /tmp/ccPIzBZ4.s:651    .text:000000000000019c .L37
     /tmp/ccPIzBZ4.s:698    .text:00000000000001f8 .L34
     /tmp/ccPIzBZ4.s:642    .text:000000000000018c .L38
     /tmp/ccPIzBZ4.s:832    .text:0000000000000290 .L45
     /tmp/ccPIzBZ4.s:809    .text:0000000000000254 .L49
     /tmp/ccPIzBZ4.s:928    .text:0000000000000370 .L47
     /tmp/ccPIzBZ4.s:905    .text:0000000000000334 .L50
     /tmp/ccPIzBZ4.s:1057   .text:0000000000000408 .L55
     /tmp/ccPIzBZ4.s:1034   .text:00000000000003cc .L59
     /tmp/ccPIzBZ4.s:1127   .text:00000000000004b0 .L57
     /tmp/ccPIzBZ4.s:1104   .text:0000000000000474 .L60
     /tmp/ccPIzBZ4.s:1371   .text:0000000000000608 .L64
     /tmp/ccPIzBZ4.s:1347   .text:00000000000005d4 .L65
     /tmp/ccPIzBZ4.s:1365   .text:0000000000000600 .L66
     /tmp/ccPIzBZ4.s:1395   .text:0000000000000648 .L67
     /tmp/ccPIzBZ4.s:1411   .text:000000000000066c .L63
     /tmp/ccPIzBZ4.s:1391   .text:0000000000000644 .L69
     /tmp/ccPIzBZ4.s:26     .text._ZN7WorkerAD2Ev:0000000000000010 .L0 
     /tmp/ccPIzBZ4.s:68     .text._ZN7WorkerAD0Ev:0000000000000018 .L0 
     /tmp/ccPIzBZ4.s:110    .text._ZN7WorkerBD2Ev:0000000000000010 .L0 
     /tmp/ccPIzBZ4.s:152    .text._ZN7WorkerBD0Ev:0000000000000018 .L0 
     /tmp/ccPIzBZ4.s:194    .text._ZN7WorkerCD2Ev:0000000000000010 .L0 
     /tmp/ccPIzBZ4.s:236    .text._ZN7WorkerCD0Ev:0000000000000018 .L0 
     /tmp/ccPIzBZ4.s:278    .text._ZN7WorkerDD2Ev:0000000000000010 .L0 
     /tmp/ccPIzBZ4.s:320    .text._ZN7WorkerDD0Ev:0000000000000018 .L0 
     /tmp/ccPIzBZ4.s:3734   .debug_abbrev:0000000000000000 .Ldebug_abbrev0
     /tmp/ccPIzBZ4.s:5363   .debug_str:00000000000004dc .LASF101
     /tmp/ccPIzBZ4.s:5299   .debug_str:00000000000002f1 .LASF102
     /tmp/ccPIzBZ4.s:5359   .debug_str:000000000000049d .LASF103
     /tmp/ccPIzBZ4.s:5149   .debug_ranges:0000000000000000 .Ldebug_ranges0
     /tmp/ccPIzBZ4.s:5191   .debug_line:0000000000000000 .Ldebug_line0
GAS LISTING /tmp/ccPIzBZ4.s 			page 47


     /tmp/ccPIzBZ4.s:5311   .debug_str:0000000000000357 .LASF0
     /tmp/ccPIzBZ4.s:5319   .debug_str:0000000000000386 .LASF1
     /tmp/ccPIzBZ4.s:5301   .debug_str:0000000000000302 .LASF2
     /tmp/ccPIzBZ4.s:5237   .debug_str:000000000000013f .LASF3
     /tmp/ccPIzBZ4.s:5275   .debug_str:0000000000000252 .LASF4
     /tmp/ccPIzBZ4.s:5351   .debug_str:000000000000046f .LASF5
     /tmp/ccPIzBZ4.s:5215   .debug_str:00000000000000b9 .LASF6
     /tmp/ccPIzBZ4.s:5323   .debug_str:00000000000003a8 .LASF7
     /tmp/ccPIzBZ4.s:5309   .debug_str:0000000000000344 .LASF8
     /tmp/ccPIzBZ4.s:5373   .debug_str:00000000000005d4 .LASF9
     /tmp/ccPIzBZ4.s:5257   .debug_str:00000000000001c9 .LASF10
     /tmp/ccPIzBZ4.s:5335   .debug_str:00000000000003fe .LASF11
     /tmp/ccPIzBZ4.s:5367   .debug_str:00000000000005b0 .LASF12
     /tmp/ccPIzBZ4.s:5217   .debug_str:00000000000000c0 .LASF13
     /tmp/ccPIzBZ4.s:5203   .debug_str:0000000000000055 .LASF14
     /tmp/ccPIzBZ4.s:5229   .debug_str:00000000000000fd .LASF15
     /tmp/ccPIzBZ4.s:5345   .debug_str:000000000000043d .LASF16
     /tmp/ccPIzBZ4.s:5235   .debug_str:0000000000000129 .LASF17
     /tmp/ccPIzBZ4.s:5247   .debug_str:000000000000018a .LASF18
     /tmp/ccPIzBZ4.s:5369   .debug_str:00000000000005bf .LASF33
     /tmp/ccPIzBZ4.s:5295   .debug_str:00000000000002d0 .LASF36
     /tmp/ccPIzBZ4.s:5255   .debug_str:00000000000001ba .LASF34
     /tmp/ccPIzBZ4.s:5253   .debug_str:00000000000001a7 .LASF19
     /tmp/ccPIzBZ4.s:5317   .debug_str:0000000000000380 .LASF21
     /tmp/ccPIzBZ4.s:5385   .debug_str:0000000000000627 .LASF20
     /tmp/ccPIzBZ4.s:5393   .debug_str:0000000000000666 .LASF22
     /tmp/ccPIzBZ4.s:5263   .debug_str:00000000000001fa .LASF23
     /tmp/ccPIzBZ4.s:5355   .debug_str:0000000000000488 .LASF24
     /tmp/ccPIzBZ4.s:5251   .debug_str:000000000000019f .LASF25
     /tmp/ccPIzBZ4.s:5271   .debug_str:000000000000023e .LASF26
     /tmp/ccPIzBZ4.s:5273   .debug_str:0000000000000248 .LASF27
     /tmp/ccPIzBZ4.s:5205   .debug_str:0000000000000065 .LASF28
     /tmp/ccPIzBZ4.s:5277   .debug_str:0000000000000259 .LASF29
     /tmp/ccPIzBZ4.s:5337   .debug_str:000000000000040d .LASF30
     /tmp/ccPIzBZ4.s:5305   .debug_str:0000000000000320 .LASF31
     /tmp/ccPIzBZ4.s:5267   .debug_str:0000000000000221 .LASF32
     /tmp/ccPIzBZ4.s:5315   .debug_str:0000000000000374 .LASF38
     /tmp/ccPIzBZ4.s:5207   .debug_str:000000000000006f .LASF44
     /tmp/ccPIzBZ4.s:5239   .debug_str:0000000000000145 .LASF35
     /tmp/ccPIzBZ4.s:5209   .debug_str:000000000000008b .LASF37
     /tmp/ccPIzBZ4.s:5225   .debug_str:00000000000000eb .LASF39
     /tmp/ccPIzBZ4.s:5303   .debug_str:0000000000000310 .LASF49
     /tmp/ccPIzBZ4.s:5381   .debug_str:000000000000060f .LASF40
     /tmp/ccPIzBZ4.s:5401   .debug_str:00000000000006ae .LASF41
     /tmp/ccPIzBZ4.s:5201   .debug_str:0000000000000042 .LASF42
     /tmp/ccPIzBZ4.s:5211   .debug_str:000000000000009d .LASF43
     /tmp/ccPIzBZ4.s:5243   .debug_str:000000000000015e .LASF45
     /tmp/ccPIzBZ4.s:5383   .debug_str:0000000000000617 .LASF46
     /tmp/ccPIzBZ4.s:5307   .debug_str:0000000000000332 .LASF47
     /tmp/ccPIzBZ4.s:5223   .debug_str:00000000000000e2 .LASF48
     /tmp/ccPIzBZ4.s:5231   .debug_str:0000000000000109 .LASF50
     /tmp/ccPIzBZ4.s:5333   .debug_str:00000000000003f6 .LASF51
     /tmp/ccPIzBZ4.s:5289   .debug_str:00000000000002a6 .LASF52
     /tmp/ccPIzBZ4.s:5339   .debug_str:0000000000000415 .LASF53
     /tmp/ccPIzBZ4.s:5199   .debug_str:0000000000000036 .LASF54
     /tmp/ccPIzBZ4.s:5399   .debug_str:0000000000000692 .LASF55
     /tmp/ccPIzBZ4.s:5313   .debug_str:0000000000000364 .LASF56
GAS LISTING /tmp/ccPIzBZ4.s 			page 48


     /tmp/ccPIzBZ4.s:5403   .debug_str:00000000000006c0 .LASF57
     /tmp/ccPIzBZ4.s:5221   .debug_str:00000000000000d9 .LASF58
     /tmp/ccPIzBZ4.s:5361   .debug_str:00000000000004cc .LASF59
     /tmp/ccPIzBZ4.s:5331   .debug_str:00000000000003ee .LASF60
     /tmp/ccPIzBZ4.s:5379   .debug_str:00000000000005fd .LASF61
     /tmp/ccPIzBZ4.s:5261   .debug_str:00000000000001e7 .LASF62
     /tmp/ccPIzBZ4.s:5197   .debug_str:000000000000002a .LASF63
     /tmp/ccPIzBZ4.s:5329   .debug_str:00000000000003d2 .LASF64
     /tmp/ccPIzBZ4.s:5365   .debug_str:00000000000005a0 .LASF65
     /tmp/ccPIzBZ4.s:5291   .debug_str:00000000000002b8 .LASF66
     /tmp/ccPIzBZ4.s:5219   .debug_str:00000000000000d0 .LASF67
     /tmp/ccPIzBZ4.s:5297   .debug_str:00000000000002e1 .LASF68
     /tmp/ccPIzBZ4.s:5341   .debug_str:0000000000000428 .LASF69
     /tmp/ccPIzBZ4.s:5269   .debug_str:0000000000000234 .LASF70
     /tmp/ccPIzBZ4.s:5389   .debug_str:000000000000064a .LASF71
     /tmp/ccPIzBZ4.s:49     .text._ZN7WorkerAD0Ev:0000000000000000 .LFB62
     /tmp/ccPIzBZ4.s:89     .text._ZN7WorkerAD0Ev:000000000000004c .LFE62
     /tmp/ccPIzBZ4.s:4524   .debug_loc:0000000000000000 .LLST1
     /tmp/ccPIzBZ4.s:65     .text._ZN7WorkerAD0Ev:0000000000000018 .LBB57
     /tmp/ccPIzBZ4.s:73     .text._ZN7WorkerAD0Ev:000000000000002c .LBE57
     /tmp/ccPIzBZ4.s:4542   .debug_loc:000000000000004c .LLST2
     /tmp/ccPIzBZ4.s:71     .text._ZN7WorkerAD0Ev:000000000000002c .LVL4
     /tmp/ccPIzBZ4.s:76     .text._ZN7WorkerAD0Ev:0000000000000038 .LVL5
     /tmp/ccPIzBZ4.s:5343   .debug_str:000000000000042d .LASF72
     /tmp/ccPIzBZ4.s:11     .text._ZN7WorkerAD2Ev:0000000000000000 .LFB60
     /tmp/ccPIzBZ4.s:40     .text._ZN7WorkerAD2Ev:0000000000000034 .LFE60
     /tmp/ccPIzBZ4.s:4553   .debug_loc:0000000000000082 .LLST0
     /tmp/ccPIzBZ4.s:29     .text._ZN7WorkerAD2Ev:0000000000000024 .LVL1
     /tmp/ccPIzBZ4.s:5245   .debug_str:000000000000017a .LASF73
     /tmp/ccPIzBZ4.s:133    .text._ZN7WorkerBD0Ev:0000000000000000 .LFB58
     /tmp/ccPIzBZ4.s:173    .text._ZN7WorkerBD0Ev:000000000000004c .LFE58
     /tmp/ccPIzBZ4.s:4567   .debug_loc:00000000000000bb .LLST4
     /tmp/ccPIzBZ4.s:149    .text._ZN7WorkerBD0Ev:0000000000000018 .LBB60
     /tmp/ccPIzBZ4.s:157    .text._ZN7WorkerBD0Ev:000000000000002c .LBE60
     /tmp/ccPIzBZ4.s:4585   .debug_loc:0000000000000107 .LLST5
     /tmp/ccPIzBZ4.s:155    .text._ZN7WorkerBD0Ev:000000000000002c .LVL11
     /tmp/ccPIzBZ4.s:160    .text._ZN7WorkerBD0Ev:0000000000000038 .LVL12
     /tmp/ccPIzBZ4.s:5259   .debug_str:00000000000001d7 .LASF74
     /tmp/ccPIzBZ4.s:96     .text._ZN7WorkerBD2Ev:0000000000000000 .LFB56
     /tmp/ccPIzBZ4.s:124    .text._ZN7WorkerBD2Ev:0000000000000034 .LFE56
     /tmp/ccPIzBZ4.s:4596   .debug_loc:000000000000013d .LLST3
     /tmp/ccPIzBZ4.s:113    .text._ZN7WorkerBD2Ev:0000000000000024 .LVL8
     /tmp/ccPIzBZ4.s:5283   .debug_str:000000000000027f .LASF75
     /tmp/ccPIzBZ4.s:217    .text._ZN7WorkerCD0Ev:0000000000000000 .LFB54
     /tmp/ccPIzBZ4.s:257    .text._ZN7WorkerCD0Ev:000000000000004c .LFE54
     /tmp/ccPIzBZ4.s:4610   .debug_loc:0000000000000176 .LLST7
     /tmp/ccPIzBZ4.s:233    .text._ZN7WorkerCD0Ev:0000000000000018 .LBB63
     /tmp/ccPIzBZ4.s:241    .text._ZN7WorkerCD0Ev:000000000000002c .LBE63
     /tmp/ccPIzBZ4.s:4628   .debug_loc:00000000000001c2 .LLST8
     /tmp/ccPIzBZ4.s:239    .text._ZN7WorkerCD0Ev:000000000000002c .LVL18
     /tmp/ccPIzBZ4.s:244    .text._ZN7WorkerCD0Ev:0000000000000038 .LVL19
     /tmp/ccPIzBZ4.s:5279   .debug_str:0000000000000263 .LASF76
     /tmp/ccPIzBZ4.s:180    .text._ZN7WorkerCD2Ev:0000000000000000 .LFB52
     /tmp/ccPIzBZ4.s:208    .text._ZN7WorkerCD2Ev:0000000000000034 .LFE52
     /tmp/ccPIzBZ4.s:4639   .debug_loc:00000000000001f8 .LLST6
     /tmp/ccPIzBZ4.s:197    .text._ZN7WorkerCD2Ev:0000000000000024 .LVL15
     /tmp/ccPIzBZ4.s:5397   .debug_str:0000000000000682 .LASF77
GAS LISTING /tmp/ccPIzBZ4.s 			page 49


     /tmp/ccPIzBZ4.s:301    .text._ZN7WorkerDD0Ev:0000000000000000 .LFB50
     /tmp/ccPIzBZ4.s:341    .text._ZN7WorkerDD0Ev:000000000000004c .LFE50
     /tmp/ccPIzBZ4.s:4653   .debug_loc:0000000000000231 .LLST10
     /tmp/ccPIzBZ4.s:317    .text._ZN7WorkerDD0Ev:0000000000000018 .LBB66
     /tmp/ccPIzBZ4.s:325    .text._ZN7WorkerDD0Ev:000000000000002c .LBE66
     /tmp/ccPIzBZ4.s:4671   .debug_loc:000000000000027d .LLST11
     /tmp/ccPIzBZ4.s:323    .text._ZN7WorkerDD0Ev:000000000000002c .LVL25
     /tmp/ccPIzBZ4.s:328    .text._ZN7WorkerDD0Ev:0000000000000038 .LVL26
     /tmp/ccPIzBZ4.s:5349   .debug_str:000000000000045f .LASF78
     /tmp/ccPIzBZ4.s:264    .text._ZN7WorkerDD2Ev:0000000000000000 .LFB48
     /tmp/ccPIzBZ4.s:292    .text._ZN7WorkerDD2Ev:0000000000000034 .LFE48
     /tmp/ccPIzBZ4.s:4682   .debug_loc:00000000000002b3 .LLST9
     /tmp/ccPIzBZ4.s:281    .text._ZN7WorkerDD2Ev:0000000000000024 .LVL22
     /tmp/ccPIzBZ4.s:5241   .debug_str:0000000000000155 .LASF79
     /tmp/ccPIzBZ4.s:5285   .debug_str:000000000000028f .LASF81
     /tmp/ccPIzBZ4.s:1432   .text:0000000000000680 .LFB46
     /tmp/ccPIzBZ4.s:1458   .text:00000000000006a8 .LFE46
     /tmp/ccPIzBZ4.s:1447   .text:0000000000000698 .LVL156
     /tmp/ccPIzBZ4.s:5265   .debug_str:000000000000020c .LASF80
     /tmp/ccPIzBZ4.s:5195   .debug_str:0000000000000010 .LASF82
     /tmp/ccPIzBZ4.s:1215   .text:00000000000004f4 .LFB45
     /tmp/ccPIzBZ4.s:1426   .text:0000000000000680 .LFE45
     /tmp/ccPIzBZ4.s:1343   .text:00000000000005d0 .LBB100
     /tmp/ccPIzBZ4.s:1366   .text:0000000000000600 .LBE100
     /tmp/ccPIzBZ4.s:4696   .debug_loc:00000000000002ec .LLST44
     /tmp/ccPIzBZ4.s:1359   .text:00000000000005f8 .LVL146
     /tmp/ccPIzBZ4.s:1385   .text:0000000000000638 .LBB101
     /tmp/ccPIzBZ4.s:1412   .text:000000000000066c .LBE101
     /tmp/ccPIzBZ4.s:5325   .debug_str:00000000000003bb .LASF83
     /tmp/ccPIzBZ4.s:4712   .debug_loc:0000000000000336 .LLST45
     /tmp/ccPIzBZ4.s:5391   .debug_str:000000000000065a .LASF84
     /tmp/ccPIzBZ4.s:5347   .debug_str:0000000000000453 .LASF104
     /tmp/ccPIzBZ4.s:4719   .debug_loc:0000000000000359 .LLST46
     /tmp/ccPIzBZ4.s:5287   .debug_str:000000000000029c .LASF85
     /tmp/ccPIzBZ4.s:1233   .text:0000000000000514 .LBB84
     /tmp/ccPIzBZ4.s:1249   .text:0000000000000524 .LBE84
     /tmp/ccPIzBZ4.s:4726   .debug_loc:000000000000037c .LLST36
     /tmp/ccPIzBZ4.s:1235   .text:0000000000000514 .LBB86
     /tmp/ccPIzBZ4.s:1243   .text:0000000000000518 .LBE86
     /tmp/ccPIzBZ4.s:4733   .debug_loc:000000000000039f .LLST37
     /tmp/ccPIzBZ4.s:1263   .text:000000000000054c .LBB88
     /tmp/ccPIzBZ4.s:1278   .text:000000000000055c .LBE88
     /tmp/ccPIzBZ4.s:4740   .debug_loc:00000000000003c2 .LLST38
     /tmp/ccPIzBZ4.s:1265   .text:000000000000054c .LBB90
     /tmp/ccPIzBZ4.s:1272   .text:0000000000000550 .LBE90
     /tmp/ccPIzBZ4.s:4747   .debug_loc:00000000000003e5 .LLST39
     /tmp/ccPIzBZ4.s:1291   .text:000000000000057c .LBB92
     /tmp/ccPIzBZ4.s:1306   .text:000000000000058c .LBE92
     /tmp/ccPIzBZ4.s:4754   .debug_loc:0000000000000408 .LLST40
     /tmp/ccPIzBZ4.s:1293   .text:000000000000057c .LBB94
     /tmp/ccPIzBZ4.s:1300   .text:0000000000000580 .LBE94
     /tmp/ccPIzBZ4.s:4761   .debug_loc:000000000000042b .LLST41
     /tmp/ccPIzBZ4.s:1319   .text:00000000000005ac .LBB96
     /tmp/ccPIzBZ4.s:1334   .text:00000000000005bc .LBE96
     /tmp/ccPIzBZ4.s:4768   .debug_loc:000000000000044e .LLST42
     /tmp/ccPIzBZ4.s:1321   .text:00000000000005ac .LBB98
     /tmp/ccPIzBZ4.s:1328   .text:00000000000005b0 .LBE98
GAS LISTING /tmp/ccPIzBZ4.s 			page 50


     /tmp/ccPIzBZ4.s:4775   .debug_loc:0000000000000471 .LLST43
     /tmp/ccPIzBZ4.s:1232   .text:0000000000000514 .LVL129
     /tmp/ccPIzBZ4.s:1257   .text:0000000000000540 .LVL132
     /tmp/ccPIzBZ4.s:1262   .text:000000000000054c .LVL133
     /tmp/ccPIzBZ4.s:1285   .text:0000000000000570 .LVL136
     /tmp/ccPIzBZ4.s:1290   .text:000000000000057c .LVL137
     /tmp/ccPIzBZ4.s:1313   .text:00000000000005a0 .LVL140
     /tmp/ccPIzBZ4.s:1318   .text:00000000000005ac .LVL141
     /tmp/ccPIzBZ4.s:1341   .text:00000000000005d0 .LVL144
     /tmp/ccPIzBZ4.s:1370   .text:0000000000000608 .LVL149
     /tmp/ccPIzBZ4.s:1012   .text:00000000000003ac .LFB44
     /tmp/ccPIzBZ4.s:1161   .text:00000000000004f4 .LFE44
     /tmp/ccPIzBZ4.s:4782   .debug_loc:0000000000000494 .LLST31
     /tmp/ccPIzBZ4.s:4796   .debug_loc:00000000000004cd .LLST32
     /tmp/ccPIzBZ4.s:4810   .debug_loc:0000000000000506 .LLST33
     /tmp/ccPIzBZ4.s:5353   .debug_str:0000000000000481 .LASF86
     /tmp/ccPIzBZ4.s:4830   .debug_loc:0000000000000563 .LLST34
     /tmp/ccPIzBZ4.s:1039   .text:00000000000003dc .LVL105
     /tmp/ccPIzBZ4.s:1046   .text:00000000000003f0 .LVL106
     /tmp/ccPIzBZ4.s:1051   .text:0000000000000400 .LVL107
     /tmp/ccPIzBZ4.s:1066   .text:0000000000000420 .LVL110
     /tmp/ccPIzBZ4.s:1077   .text:000000000000042c .LVL111
     /tmp/ccPIzBZ4.s:1082   .text:0000000000000438 .LVL112
     /tmp/ccPIzBZ4.s:1090   .text:000000000000044c .LVL115
     /tmp/ccPIzBZ4.s:1097   .text:0000000000000460 .LVL116
     /tmp/ccPIzBZ4.s:1102   .text:0000000000000470 .LVL117
     /tmp/ccPIzBZ4.s:1109   .text:0000000000000484 .LVL118
     /tmp/ccPIzBZ4.s:1116   .text:0000000000000498 .LVL119
     /tmp/ccPIzBZ4.s:1121   .text:00000000000004a8 .LVL120
     /tmp/ccPIzBZ4.s:1136   .text:00000000000004c8 .LVL123
     /tmp/ccPIzBZ4.s:1144   .text:00000000000004dc .LVL124
     /tmp/ccPIzBZ4.s:787    .text:0000000000000234 .LFB43
     /tmp/ccPIzBZ4.s:958    .text:00000000000003ac .LFE43
     /tmp/ccPIzBZ4.s:4841   .debug_loc:0000000000000599 .LLST25
     /tmp/ccPIzBZ4.s:4855   .debug_loc:00000000000005d2 .LLST26
     /tmp/ccPIzBZ4.s:4869   .debug_loc:000000000000060b .LLST27
     /tmp/ccPIzBZ4.s:4889   .debug_loc:0000000000000668 .LLST28
     /tmp/ccPIzBZ4.s:4897   .debug_loc:000000000000068c .LLST29
     /tmp/ccPIzBZ4.s:814    .text:0000000000000264 .LVL75
     /tmp/ccPIzBZ4.s:821    .text:0000000000000278 .LVL76
     /tmp/ccPIzBZ4.s:826    .text:0000000000000288 .LVL77
     /tmp/ccPIzBZ4.s:841    .text:00000000000002a8 .LVL80
     /tmp/ccPIzBZ4.s:852    .text:00000000000002b4 .LVL81
     /tmp/ccPIzBZ4.s:866    .text:00000000000002c8 .LVL83
     /tmp/ccPIzBZ4.s:873    .text:00000000000002dc .LVL84
     /tmp/ccPIzBZ4.s:878    .text:00000000000002ec .LVL85
     /tmp/ccPIzBZ4.s:883    .text:00000000000002f8 .LVL86
     /tmp/ccPIzBZ4.s:891    .text:000000000000030c .LVL89
     /tmp/ccPIzBZ4.s:898    .text:0000000000000320 .LVL90
     /tmp/ccPIzBZ4.s:903    .text:0000000000000330 .LVL91
     /tmp/ccPIzBZ4.s:910    .text:0000000000000344 .LVL92
     /tmp/ccPIzBZ4.s:917    .text:0000000000000358 .LVL93
     /tmp/ccPIzBZ4.s:922    .text:0000000000000368 .LVL94
     /tmp/ccPIzBZ4.s:937    .text:0000000000000388 .LVL97
     /tmp/ccPIzBZ4.s:602    .text:0000000000000150 .LFB42
     /tmp/ccPIzBZ4.s:730    .text:0000000000000234 .LFE42
     /tmp/ccPIzBZ4.s:4908   .debug_loc:00000000000006c2 .LLST19
GAS LISTING /tmp/ccPIzBZ4.s 			page 51


     /tmp/ccPIzBZ4.s:4922   .debug_loc:00000000000006fb .LLST20
     /tmp/ccPIzBZ4.s:625    .text:0000000000000178 .LBB76
     /tmp/ccPIzBZ4.s:701    .text:00000000000001f8 .LBE76
     /tmp/ccPIzBZ4.s:4936   .debug_loc:0000000000000734 .LLST21
     /tmp/ccPIzBZ4.s:4948   .debug_loc:000000000000076b .LLST22
     /tmp/ccPIzBZ4.s:648    .text:0000000000000198 .LBB80
     /tmp/ccPIzBZ4.s:663    .text:00000000000001b0 .LBE80
     /tmp/ccPIzBZ4.s:4960   .debug_loc:00000000000007a2 .LLST23
     /tmp/ccPIzBZ4.s:637    .text:0000000000000188 .LVL57
     /tmp/ccPIzBZ4.s:679    .text:00000000000001cc .LVL63
     /tmp/ccPIzBZ4.s:686    .text:00000000000001e0 .LVL64
     /tmp/ccPIzBZ4.s:691    .text:00000000000001f0 .LVL65
     /tmp/ccPIzBZ4.s:623    .text:0000000000000178 .LVL55
     /tmp/ccPIzBZ4.s:706    .text:0000000000000208 .LVL67
     /tmp/ccPIzBZ4.s:714    .text:000000000000021c .LVL68
     /tmp/ccPIzBZ4.s:430    .text:0000000000000074 .LFB41
     /tmp/ccPIzBZ4.s:554    .text:0000000000000150 .LFE41
     /tmp/ccPIzBZ4.s:4971   .debug_loc:00000000000007d8 .LLST13
     /tmp/ccPIzBZ4.s:4985   .debug_loc:0000000000000811 .LLST14
     /tmp/ccPIzBZ4.s:453    .text:000000000000009c .LBB68
     /tmp/ccPIzBZ4.s:529    .text:000000000000011c .LBE68
     /tmp/ccPIzBZ4.s:4999   .debug_loc:000000000000084a .LLST15
     /tmp/ccPIzBZ4.s:5011   .debug_loc:0000000000000881 .LLST16
     /tmp/ccPIzBZ4.s:476    .text:00000000000000bc .LBB72
     /tmp/ccPIzBZ4.s:491    .text:00000000000000d4 .LBE72
     /tmp/ccPIzBZ4.s:5023   .debug_loc:00000000000008b8 .LLST17
     /tmp/ccPIzBZ4.s:465    .text:00000000000000ac .LVL39
     /tmp/ccPIzBZ4.s:507    .text:00000000000000f0 .LVL45
     /tmp/ccPIzBZ4.s:514    .text:0000000000000104 .LVL46
     /tmp/ccPIzBZ4.s:519    .text:0000000000000114 .LVL47
     /tmp/ccPIzBZ4.s:451    .text:000000000000009c .LVL37
     /tmp/ccPIzBZ4.s:534    .text:000000000000012c .LVL49
     /tmp/ccPIzBZ4.s:1168   .text._ZN7WorkerD3runEv:0000000000000000 .LFB40
     /tmp/ccPIzBZ4.s:1195   .text._ZN7WorkerD3runEv:000000000000002c .LFE40
     /tmp/ccPIzBZ4.s:5034   .debug_loc:00000000000008ee .LLST35
     /tmp/ccPIzBZ4.s:1184   .text._ZN7WorkerD3runEv:000000000000001c .LVL128
     /tmp/ccPIzBZ4.s:5327   .debug_str:00000000000003c2 .LASF87
     /tmp/ccPIzBZ4.s:965    .text._ZN7WorkerC3runEv:0000000000000000 .LFB36
     /tmp/ccPIzBZ4.s:992    .text._ZN7WorkerC3runEv:000000000000002c .LFE36
     /tmp/ccPIzBZ4.s:5048   .debug_loc:0000000000000927 .LLST30
     /tmp/ccPIzBZ4.s:981    .text._ZN7WorkerC3runEv:000000000000001c .LVL101
     /tmp/ccPIzBZ4.s:5213   .debug_str:00000000000000a9 .LASF88
     /tmp/ccPIzBZ4.s:737    .text._ZN7WorkerB3runEv:0000000000000000 .LFB32
     /tmp/ccPIzBZ4.s:764    .text._ZN7WorkerB3runEv:000000000000002c .LFE32
     /tmp/ccPIzBZ4.s:5062   .debug_loc:0000000000000960 .LLST24
     /tmp/ccPIzBZ4.s:753    .text._ZN7WorkerB3runEv:000000000000001c .LVL71
     /tmp/ccPIzBZ4.s:5249   .debug_str:000000000000018f .LASF89
     /tmp/ccPIzBZ4.s:561    .text._ZN7WorkerA3runEv:0000000000000000 .LFB28
     /tmp/ccPIzBZ4.s:588    .text._ZN7WorkerA3runEv:000000000000002c .LFE28
     /tmp/ccPIzBZ4.s:5076   .debug_loc:0000000000000999 .LLST18
     /tmp/ccPIzBZ4.s:577    .text._ZN7WorkerA3runEv:000000000000001c .LVL52
     /tmp/ccPIzBZ4.s:5193   .debug_str:0000000000000000 .LASF90
     /tmp/ccPIzBZ4.s:5375   .debug_str:00000000000005e4 .LASF105
     /tmp/ccPIzBZ4.s:5371   .debug_str:00000000000005c6 .LASF106
     /tmp/ccPIzBZ4.s:348    .text:0000000000000000 .LFB24
     /tmp/ccPIzBZ4.s:413    .text:0000000000000074 .LFE24
     /tmp/ccPIzBZ4.s:5090   .debug_loc:00000000000009d2 .LLST12
GAS LISTING /tmp/ccPIzBZ4.s 			page 52


     /tmp/ccPIzBZ4.s:380    .text:000000000000003c .LVL30
     /tmp/ccPIzBZ4.s:385    .text:000000000000004c .LVL31
     /tmp/ccPIzBZ4.s:410    .text:0000000000000070 .LVL34
     /tmp/ccPIzBZ4.s:5377   .debug_str:00000000000005ee .LASF91
     /tmp/ccPIzBZ4.s:5405   .debug_str:00000000000006d2 .LASF92
     /tmp/ccPIzBZ4.s:5357   .debug_str:000000000000048d .LASF93
     /tmp/ccPIzBZ4.s:5293   .debug_str:00000000000002ca .LASF94
     /tmp/ccPIzBZ4.s:5387   .debug_str:000000000000063d .LASF95
     /tmp/ccPIzBZ4.s:5395   .debug_str:000000000000066f .LASF96
     /tmp/ccPIzBZ4.s:5281   .debug_str:0000000000000273 .LASF97
     /tmp/ccPIzBZ4.s:5321   .debug_str:0000000000000399 .LASF98
     /tmp/ccPIzBZ4.s:5227   .debug_str:00000000000000f4 .LASF99
     /tmp/ccPIzBZ4.s:5233   .debug_str:0000000000000119 .LASF100
     /tmp/ccPIzBZ4.s:52     .text._ZN7WorkerAD0Ev:0000000000000000 .LVL2
     /tmp/ccPIzBZ4.s:84     .text._ZN7WorkerAD0Ev:0000000000000044 .LVL6
     /tmp/ccPIzBZ4.s:64     .text._ZN7WorkerAD0Ev:0000000000000018 .LVL3
     /tmp/ccPIzBZ4.s:15     .text._ZN7WorkerAD2Ev:0000000000000000 .LVL0
     /tmp/ccPIzBZ4.s:136    .text._ZN7WorkerBD0Ev:0000000000000000 .LVL9
     /tmp/ccPIzBZ4.s:168    .text._ZN7WorkerBD0Ev:0000000000000044 .LVL13
     /tmp/ccPIzBZ4.s:148    .text._ZN7WorkerBD0Ev:0000000000000018 .LVL10
     /tmp/ccPIzBZ4.s:99     .text._ZN7WorkerBD2Ev:0000000000000000 .LVL7
     /tmp/ccPIzBZ4.s:220    .text._ZN7WorkerCD0Ev:0000000000000000 .LVL16
     /tmp/ccPIzBZ4.s:252    .text._ZN7WorkerCD0Ev:0000000000000044 .LVL20
     /tmp/ccPIzBZ4.s:232    .text._ZN7WorkerCD0Ev:0000000000000018 .LVL17
     /tmp/ccPIzBZ4.s:183    .text._ZN7WorkerCD2Ev:0000000000000000 .LVL14
     /tmp/ccPIzBZ4.s:304    .text._ZN7WorkerDD0Ev:0000000000000000 .LVL23
     /tmp/ccPIzBZ4.s:336    .text._ZN7WorkerDD0Ev:0000000000000044 .LVL27
     /tmp/ccPIzBZ4.s:316    .text._ZN7WorkerDD0Ev:0000000000000018 .LVL24
     /tmp/ccPIzBZ4.s:267    .text._ZN7WorkerDD2Ev:0000000000000000 .LVL21
     /tmp/ccPIzBZ4.s:1346   .text:00000000000005d4 .LVL145
     /tmp/ccPIzBZ4.s:1362   .text:00000000000005fc .LVL147
     /tmp/ccPIzBZ4.s:1364   .text:0000000000000600 .LVL148
     /tmp/ccPIzBZ4.s:1388   .text:0000000000000640 .LVL150
     /tmp/ccPIzBZ4.s:1401   .text:0000000000000658 .LVL153
     /tmp/ccPIzBZ4.s:1409   .text:0000000000000668 .LVL154
     /tmp/ccPIzBZ4.s:1390   .text:0000000000000644 .LVL151
     /tmp/ccPIzBZ4.s:1421   .text:0000000000000678 .LVL155
     /tmp/ccPIzBZ4.s:1247   .text:0000000000000524 .LVL131
     /tmp/ccPIzBZ4.s:1241   .text:0000000000000518 .LVL130
     /tmp/ccPIzBZ4.s:1276   .text:000000000000055c .LVL135
     /tmp/ccPIzBZ4.s:1270   .text:0000000000000550 .LVL134
     /tmp/ccPIzBZ4.s:1304   .text:000000000000058c .LVL139
     /tmp/ccPIzBZ4.s:1298   .text:0000000000000580 .LVL138
     /tmp/ccPIzBZ4.s:1332   .text:00000000000005bc .LVL143
     /tmp/ccPIzBZ4.s:1326   .text:00000000000005b0 .LVL142
     /tmp/ccPIzBZ4.s:1015   .text:00000000000003ac .LVL102
     /tmp/ccPIzBZ4.s:1033   .text:00000000000003cc .LVL104
     /tmp/ccPIzBZ4.s:1029   .text:00000000000003c4 .LVL103
     /tmp/ccPIzBZ4.s:1054   .text:0000000000000404 .LVL108
     /tmp/ccPIzBZ4.s:1056   .text:0000000000000408 .LVL109
     /tmp/ccPIzBZ4.s:1124   .text:00000000000004ac .LVL121
     /tmp/ccPIzBZ4.s:1126   .text:00000000000004b0 .LVL122
     /tmp/ccPIzBZ4.s:1153   .text:00000000000004e8 .LVL125
     /tmp/ccPIzBZ4.s:1084   .text:000000000000043c .LVL113
     /tmp/ccPIzBZ4.s:1088   .text:0000000000000444 .LVL114
     /tmp/ccPIzBZ4.s:1156   .text:00000000000004ec .LVL126
     /tmp/ccPIzBZ4.s:790    .text:0000000000000234 .LVL72
GAS LISTING /tmp/ccPIzBZ4.s 			page 53


     /tmp/ccPIzBZ4.s:808    .text:0000000000000254 .LVL74
     /tmp/ccPIzBZ4.s:804    .text:000000000000024c .LVL73
     /tmp/ccPIzBZ4.s:829    .text:000000000000028c .LVL78
     /tmp/ccPIzBZ4.s:831    .text:0000000000000290 .LVL79
     /tmp/ccPIzBZ4.s:925    .text:000000000000036c .LVL95
     /tmp/ccPIzBZ4.s:927    .text:0000000000000370 .LVL96
     /tmp/ccPIzBZ4.s:950    .text:00000000000003a0 .LVL98
     /tmp/ccPIzBZ4.s:860    .text:00000000000002b8 .LVL82
     /tmp/ccPIzBZ4.s:885    .text:00000000000002fc .LVL87
     /tmp/ccPIzBZ4.s:889    .text:0000000000000304 .LVL88
     /tmp/ccPIzBZ4.s:953    .text:00000000000003a4 .LVL99
     /tmp/ccPIzBZ4.s:605    .text:0000000000000150 .LVL53
     /tmp/ccPIzBZ4.s:621    .text:0000000000000170 .LVL54
     /tmp/ccPIzBZ4.s:629    .text:0000000000000180 .LVL56
     /tmp/ccPIzBZ4.s:725    .text:000000000000022c .LVL69
     /tmp/ccPIzBZ4.s:669    .text:00000000000001b4 .LVL62
     /tmp/ccPIzBZ4.s:697    .text:00000000000001f8 .LVL66
     /tmp/ccPIzBZ4.s:652    .text:000000000000019c .LVL59
     /tmp/ccPIzBZ4.s:661    .text:00000000000001b0 .LVL61
     /tmp/ccPIzBZ4.s:433    .text:0000000000000074 .LVL35
     /tmp/ccPIzBZ4.s:449    .text:0000000000000094 .LVL36
     /tmp/ccPIzBZ4.s:457    .text:00000000000000a4 .LVL38
     /tmp/ccPIzBZ4.s:549    .text:0000000000000148 .LVL50
     /tmp/ccPIzBZ4.s:497    .text:00000000000000d8 .LVL44
     /tmp/ccPIzBZ4.s:525    .text:000000000000011c .LVL48
     /tmp/ccPIzBZ4.s:480    .text:00000000000000c0 .LVL41
     /tmp/ccPIzBZ4.s:489    .text:00000000000000d4 .LVL43
     /tmp/ccPIzBZ4.s:1171   .text._ZN7WorkerD3runEv:0000000000000000 .LVL127
     /tmp/ccPIzBZ4.s:968    .text._ZN7WorkerC3runEv:0000000000000000 .LVL100
     /tmp/ccPIzBZ4.s:740    .text._ZN7WorkerB3runEv:0000000000000000 .LVL70
     /tmp/ccPIzBZ4.s:564    .text._ZN7WorkerA3runEv:0000000000000000 .LVL51
     /tmp/ccPIzBZ4.s:351    .text:0000000000000000 .LVL28
     /tmp/ccPIzBZ4.s:374    .text:0000000000000030 .LVL29
     /tmp/ccPIzBZ4.s:398    .text:000000000000005c .LVL32
     /tmp/ccPIzBZ4.s:404    .text:0000000000000068 .LVL33
     /tmp/ccPIzBZ4.s:1538   .debug_info:0000000000000000 .Ldebug_info0
     /tmp/ccPIzBZ4.s:5      .text:0000000000000000 .Ltext0
     /tmp/ccPIzBZ4.s:1533   .text:00000000000006a8 .Letext0
     /tmp/ccPIzBZ4.s:460    .text:00000000000000a4 .LBB70
     /tmp/ccPIzBZ4.s:493    .text:00000000000000d4 .LBE70
     /tmp/ccPIzBZ4.s:521    .text:0000000000000114 .LBB74
     /tmp/ccPIzBZ4.s:527    .text:000000000000011c .LBE74
     /tmp/ccPIzBZ4.s:632    .text:0000000000000180 .LBB78
     /tmp/ccPIzBZ4.s:665    .text:00000000000001b0 .LBE78
     /tmp/ccPIzBZ4.s:693    .text:00000000000001f0 .LBB82
     /tmp/ccPIzBZ4.s:699    .text:00000000000001f8 .LBE82
                           .group:0000000000000000 _ZN7WorkerAD5Ev
                           .group:0000000000000000 _ZN7WorkerBD5Ev
                           .group:0000000000000000 _ZN7WorkerCD5Ev
                           .group:0000000000000000 _ZN7WorkerDD5Ev

UNDEFINED SYMBOLS
_ZN6ThreadD2Ev
_ZdlPv
thread_dispatch
_ZN6Thread4joinEv
_Z11printStringPKc
GAS LISTING /tmp/ccPIzBZ4.s 			page 54


_Z8printIntiii
_Znwm
_ZN6Thread5startEv
_ZN6Thread8dispatchEv
